(dp0
S'http://www.sab.cc.gatech.edu/officers.php'
p1
F0.00052375267542612
sS'http://home.cc.gatech.edu/je77'
p2
F0.0003047578936488893
sS'http://mikeb.inta.gatech.edu/students'
p3
F0.0003079789407016274
sS'http://www.cc.gatech.edu/~dkrum'
p4
F0.00026969561758637486
sS'https://wiki.cc.gatech.edu/gvu'
p5
F0.0004240983430550796
sS'http://cc.gatech.edu/~dchau'
p6
F0.00028027767304898894
sS'mailto:jarek@gvu.gatech.edu'
p7
F0.00026969561758637486
sS'http://titanium.lcc.gatech.edu/~eporter'
p8
F0.00026969561758637486
sS'http://www.gatech.edu/legal-privacy'
p9
F0.00027108037159792765
sS'http://www.gatech.edu/news-room'
p10
F0.0003230360475056341
sS'http://borg.cc.gatech.edu/ccg'
p11
F0.0002865440872662862
sS'mailto:aameek@cc.gatech.edu'
p12
F0.00027784994727251703
sS'http://www.cc.gatech.edu/~hsahni3'
p13
F0.0002965722371259038
sS'http://wiki.cc.gatech.edu/activities'
p14
F0.0002683336946301467
sS'http://coweb.cc.gatech.edu/cs2340'
p15
F0.0003472052866072689
sS'http://www.cc.gatech.edu/~mthomas6'
p16
F0.0002697346593853361
sS'http://www.cc.gatech.edu/sgconnect'
p17
F0.00027412197047255334
sS'http://www.cc.gatech.edu/mics'
p18
F0.00028702722812611677
sS'http://www.cc.gatech.edu/IFER'
p19
F0.0003412958190163069
sS'http://www.cc.gatech.edu/DisplayDetail.asp?SID=3353100&Pos=5'
p20
F0.0003351953744415918
sS'http://www.hpc.gatech.edu/Mary.Trauner'
p21
F0.00026969561758637486
sS'http://www.lcc.gatech.edu/%7Exinwei'
p22
F0.00026969561758637486
sS'http://www.prism.gatech.edu/~gte470e'
p23
F0.00027108037159792765
sS'mailto:larry.hodges@cc.gatech.edu'
p24
F0.00026969561758637486
sS'http://www.cc.gatech.edu/~tqlong'
p25
F0.00028027767304898894
sS'http://www.cc.gatech.edu/~yanwei'
p26
F0.00028398108986966254
sS'http://wiki.cc.gatech.edu/gvu-proposals'
p27
F0.0002683336946301467
sS'http://www.hsi.gatech.edu/icu'
p28
F0.00028242014367132903
sS'http://dev-support.cc.gatech.edu/facilities'
p29
F0.00030084260116600435
sS'http://www.oip.gatech.edu/imtc'
p30
F0.00026969561758637486
sS'https://wiki.cc.gatech.edu/robocup'
p31
F0.00033767544385760286
sS'http://housing.gatech.edu/Pages'
p32
F0.00038175800020361675
sS'http://wiki.cc.gatech.edu/elba'
p33
F0.0002683336946301467
sS'http://www.cc.gatech.edu/CogRob'
p34
F0.00027412197047255334
sS'mailto:lonnie.harvel@ece.gatech.edu'
p35
F0.00026969561758637486
sS'http://research.cc.gatech.edu/act-lab'
p36
F0.00027412197047255334
sS'http://www.cc.gatech.edu/%7Eafb'
p37
F0.00030818499657747796
sS'http://gacomputes.cc.gatech.edu/accessibility-info'
p38
F0.003574375587323576
sS'http://www.cc.gatech.edu/~bcousins'
p39
F0.000288385047903782
sS'MAILTO:cq@cc.gatech.edu'
p40
F0.00027108037159792765
sS'http://www.cc.gatech.edu/alerts'
p41
F0.00029595402159060465
sS'http://www.cc.gatech.edu/2010-phds'
p42
F0.0003412958190163069
sS'http://wiki.cc.gatech.edu/roboticshandbook'
p43
F0.0002683336946301467
sS'mailto:bprice@cc.gatech.edu'
p44
F0.000273027506071963
sS'http://www.hsi.gatech.edu/visitors'
p45
F0.00028548755536116657
sS'http://pag.gatech.edu/naik'
p46
F0.00029588764715523543
sS'http://www.cc.gatech.edu/~ptembey'
p47
F0.0003497118642218051
sS'http://www.cc.gatech.edu/inc'
p48
F0.0004332835724630195
sS'http://ipat.gatech.edu/gt-journey-enriching-campus-experience'
p49
F0.000305440550097563
sS'http://forms.budgets.gatech.edu/view.php?id=13886'
p50
F0.00030084260116600435
sS'http://www.news.gatech.edu/2012'
p51
F0.000273027506071963
sS'http://www.news.gatech.edu/2014'
p52
F0.0003122808782783094
sS'mailto:rehg@cc.gatech.edu'
p53
F0.00033041506020476666
sS'http://bibbase.org/rss?bib=http:'
p54
F0.00028772845854070097
sS'http://gacomputes.cc.gatech.edu/sitemap?None&month:int=10&year:int=2014&orig_query=None#portlet-navi'
p55
F0.0002652679385544622
sS'http://www.cercs.gatech.edu/events.shtml'
p56
F0.0002751888510406943
sS'http://www.cc.gatech.edu/services'
p57
F0.0004405259483945352
sS'http://wiki.cc.gatech.edu/cercscloud'
p58
F0.0002683336946301467
sS'http://www.cc.gatech.edu/home'
p59
F0.0004161022828802291
sS'mailto:lometa@cc.gatech.edu'
p60
F0.0002887134784152764
sS'http://dilab.gatech.edu'
p61
F0.00036775171987222323
sS'http://www.gvu.gatech.edu/ccg'
p62
F0.0002774551851038756
sS'http://wiki.cc.gatech.edu/dtn'
p63
F0.0003253546049765302
sS'http://www.cc.gatech.edu/eye-team'
p64
F0.0003412958190163069
sS'http://studentcenter.gatech.edu/scpc'
p65
F0.00029476742054772585
sS'http://www.cc.gatech.edu/~rama'
p66
F0.0004813945389322777
sS'http://www.lcc.gatech.edu/idt'
p67
F0.00026969561758637486
sS'http://www.cc.gatech.edu/sensor-lab'
p68
F0.0003133497572525814
sS'http://www.cc.gatech.edu/~ammar'
p69
F0.0002783723162445501
sS'http://www.osp.gatech.edu'
p70
F0.00027444441244828764
sS'http://home.cc.gatech.edu/csl'
p71
F0.0008362578683488684
sS'mailto:goel@cc.gatech.edu'
p72
F0.00027108037159792765
sS'http://usa.arch.gatech.edu/Design-Comp'
p73
F0.00026969561758637486
sS'http://www.prism.gatech.edu/~ssg6'
p74
F0.00039312189452191305
sS'http://www.cc.gatech.edu/photography'
p75
F0.0003222888489008458
sS'http://www.cc.gatech.edu/srforum'
p76
F0.0003845253051387426
sS'http://www.omed.gatech.edu'
p77
F0.0002834692054638084
sS'http://www.oip.gatech.edu/imtc.html'
p78
F0.00026969561758637486
sS'http://mgt.gatech.edu'
p79
F0.00029368543565683837
sS'http://www.cc.gatech.edu/cns'
p80
F0.00029912213597848246
sS'http://www.cc.gatech.edu/~catzan'
p81
F0.00026969561758637486
sS'http://wiki.cc.gatech.edu/IFER'
p82
F0.0002683336946301467
sS'http://www.arch.gatech.edu/imagine'
p83
F0.00026969561758637486
sS'http://gacomputes.cc.gatech.edu/search_form#documentContent'
p84
F0.0004290789606729221
sS'http://www.cc.gatech.edu/projects'
p85
F0.0011761629156816548
sS'http://www.cc.gatech.edu/cnc'
p86
F0.00027450409976489384
sS'http://www.me.gatech.edu/sigmaxi'
p87
F0.0003161272877007597
sS'http://people.math.gatech.edu/~tetali'
p88
F0.0003213611835011412
sS'http://www.cc.gatech.edu/social-machines'
p89
F0.0008669969292877262
sS'http://gacomputes.cc.gatech.edu/author?None&month:int=1&year:int=2015&orig_query=None'
p90
F0.00030032484618015186
sS'http://www.cc.gatech.edu/ubicomp'
p91
F0.0003412958190163069
sS'http://wiki.cc.gatech.edu/cellbuzz-admin'
p92
F0.0002683336946301467
sS'http://wiki.cc.gatech.edu/2010-phds'
p93
F0.0002683336946301467
sS'http://srl.marc.gatech.edu'
p94
F0.00026969561758637486
sS'http://validator.w3.org/check?uri=http%3A%2F%2Fwww.cc.gatech.edu%2Fprojects%2Finfosphere;outline=1'
p95
F0.0002881228989135069
sS'http://www.ee.gatech.edu/users'
p96
F0.00033818384066211965
sS'http://minnow.cc.gatech.edu/squeakpages.1'
p97
F0.00027108037159792765
sS'http://www.cc.gatech.edu/mediaComp-teach'
p98
F0.00034755261864090353
sS'http://otl.gtrc.gatech.edu/documents'
p99
F0.000292646942251053
sS'http://mikeb.inta.gatech.edu/contact'
p100
F0.0003079789407016274
sS'mailto:Clayton.Hutto@gtri.gatech.edu'
p101
F0.0002697346593853361
sS'mailto:greg.vanhoosiercarey@lcc.gatech.edu'
p102
F0.00026969561758637486
sS'http://www.cc.gatech.edu/mediaComp-stuff'
p103
F0.0002735769350290025
sS'http://swiki.cc.gatech.edu:8080/compMusic'
p104
F0.0002838342865392026
sS'http://www.cc.gatech.edu/~azook3'
p105
F0.0002697346593853361
sS'https://research.cc.gatech.edu/educationAR'
p106
F0.00027412197047255334
sS'http://www.cc.gatech.edu/~kenmac'
p107
F0.00033287453124827463
sS'http://wiki.cc.gatech.edu/mediawiki'
p108
F0.00027837919440421537
sS'http://www.cc.gatech.edu/~atamerso'
p109
F0.0003376839437364917
sS'http://drupal.gatech.edu/wiki'
p110
F0.00028298684927318253
sS'mailto:mike.sinclair@oip.gatech.edu'
p111
F0.00026969561758637486
sS'http://www3-int.cc.gatech.edu/systems'
p112
F0.0002698833152670308
sS'http://gacomputes.cc.gatech.edu/contact-info?None&month:int=8&year:int=2014&orig_query=None'
p113
F0.00027762025280298223
sS'http://wiki.cc.gatech.edu/hpcprojs'
p114
F0.0002683336946301467
sS'http://www.prism.gatech.edu/~gtg857i'
p115
F0.00027108037159792765
sS'mailto:borna@cc.gatech.edu'
p116
F0.0002688699463692898
sS'mailto:laks@cc.gatech.edu'
p117
F0.00027108037159792765
sS'http://www.cc.gatech.edu/~mansour'
p118
F0.0002885964665822311
sS'http://www.registrar.gatech.edu/registration'
p119
F0.0002834692054638084
sS'http://oit.gatech.edu'
p120
F0.00029314197949431727
sS'http://home.cc.gatech.edu/eaganj'
p121
F0.00037190549389578664
sS'http://www.cc.gatech.edu/~agray'
p122
F0.00032808608260980973
sS'http://gacomputes.cc.gatech.edu/author?None&month:int=12&year:int=2014&orig_query=None#portlet-navig'
p123
F0.0002652679385544622
sS'http://www.cc.gatech.edu/~ti'
p124
F0.00030240523711618254
sS'http://www.cc.gatech.edu/~whalfond'
p125
F0.00027450409976489384
sS'http://webct.gatech.edu'
p126
F0.00037988855423929567
sS'mailto:dtn-gt@cc.gatech.edu'
p127
F0.00028713445888880774
sS'http://www.cc.gatech.edu/education.html'
p128
F0.0002755377503357736
sS'http://www.cercs.gatech.edu/contact.shtml'
p129
F0.0002751888510406943
sS'http://gacomputes.cc.gatech.edu/#documentContent'
p130
F0.00039039229085048577
sS'mailto:david.joyner@gatech.edu'
p131
F0.0002697346593853361
sS'http://www.cc.gatech.edu/category'
p132
F0.00028615793539860985
sS'http://www.cc.gatech.edu/resources'
p133
F0.0004175319213778822
sS'http://ipatforum.gatech.edu'
p134
F0.00030338494896722676
sS'http://www.prism.gatech.edu/%7Ebwiltgen3'
p135
F0.0002690648584137492
sS'https://wiki.cc.gatech.edu/ubicomp'
p136
F0.0003412958190163069
sS'http://www.cc.gatech.edu/~leomark'
p137
F0.0002783723162445501
sS'http://users.ece.gatech.edu/~sudha'
p138
F0.0002698833152670308
sS'http://www.sab.cc.gatech.edu/sab08constitution.pdf'
p139
F0.00052375267542612
sS'http://www-static.cc.gatech.edu/~feamster'
p140
F0.000273027506071963
sS'http://www.cc.gatech.edu/%7etomiller'
p141
F0.00027108037159792765
sS'http://share-it.gatech.edu/oit'
p142
F0.0005039785622949668
sS'http://www.health.gatech.edu'
p143
F0.00030354771053525123
sS'http://coe.gatech.edu/content'
p144
F0.000273027506071963
sS'http://www.ibsi.gatech.edu/frontiers'
p145
F0.0002887134784152764
sS'http://development.gatech.edu/campaign-georgia-tech'
p146
F0.000273027506071963
sS'http://gatech.edu/newsroom'
p147
F0.0003185418106787421
sS'http://www.prism.gatech.edu/~gt4510b'
p148
F0.00026969561758637486
sS'http://css-workshop.gatech.edu'
p149
F0.00032231946879714065
sS'http://gacomputes.cc.gatech.edu/search_rss?Creator=jpdimond&sort_on=Date&sort_order=reverse'
p150
F0.00027780928275942797
sS'http://www.cc.gatech.edu/cats'
p151
F0.00030023034368653487
sS'mailto:azhao@cc.gatech.edu'
p152
F0.000292646942251053
sS'http://www.cc.gatech.edu/sml'
p153
F0.0003412958190163069
sS'http://gacomputes.cc.gatech.edu/contact-info?None&month:int=1&year:int=2015&orig_query=None'
p154
F0.0003051748212793555
sS'http://www.cc.gatech.edu/events'
p155
F0.0017937416556023278
sS'http://www.cc.gatech.edu/ntg'
p156
F0.00034420559903868426
sS'http://www.cc.gatech.edu/c4g'
p157
F0.0003412958190163069
sS'http://www.arc.gatech.edu/colloquium.php'
p158
F0.00029241581254696317
sS'http://gacomputes.cc.gatech.edu/front-page#portlet-navigation-tree'
p159
F0.00029691668677288855
sS'http://gacomputes.cc.gatech.edu/mail_password_form?None&month:int=8&year:int=2014&orig_query=None'
p160
F0.00027695936211650563
sS'http://earsketch.gatech.edu'
p161
F0.000273027506071963
sS'mailto:czamboni@cc.gatech.edu'
p162
F0.0002688699463692898
sS'http://robotics.gatech.edu/news'
p163
F0.0005261437955812004
sS'http://www.sab.cc.gatech.edu/photos.php'
p164
F0.00052375267542612
sS'http://www.cc.gatech.edu/~mjcramer'
p165
F0.00028772845854070097
sS'http://www.cc.gatech.edu/DeleteResponses.asp?RespondentID=377694859'
p166
F0.0003351953744415918
sS'http://www.cc.gatech.edu/%7Emstilman'
p167
F0.000273027506071963
sS'http://www.cc.gatech.edu/~csallnch'
p168
F0.00027450409976489384
sS'http://wiki.cc.gatech.edu/hparch'
p169
F0.0002683336946301467
sS'http://gacomputes.cc.gatech.edu/projects#documentContent'
p170
F0.00043714846915735066
sS'http://id.gatech.edu'
p171
F0.0002860816947189663
sS'http://www.cc.gatech.edu/CoC.html'
p172
F0.0004412938386181067
sS'http://www.scs.gatech.edu/research'
p173
F0.00044914287711151095
sS'http://www.cc.gatech.edu/~goel'
p174
F0.00027832946843326154
sS'http://http://c21u.gatech.edu'
p175
F0.00027832946843326154
sS'http://www.cc.gatech.edu/%7Ejx'
p176
F0.00035822380072843247
sS'mailto:ice@cc.gatech.edu'
p177
F0.00031798315456871686
sS'http://www.aco.gatech.edu/syllabi.html#Linear Inequalities'
p178
F0.0002766970153064052
sS'mailto:mihail@cc.gatech.edu'
p179
F0.00029152577952016256
sS'http://www.cc.gatech.edu/phdadmin'
p180
F0.0002735769350290025
sS'http://www.cc.gatech.edu/nlp-reading'
p181
F0.0003412958190163069
sS'mailto:pdns-owner@cc.gatech.edu'
p182
F0.00028713445888880774
sS'http://www.pe.gatech.edu/courses'
p183
F0.000273027506071963
sS'http://www.cc.gatech.edu/~mhong39'
p184
F0.0003425202027994804
sS'http://flamel.gatech.edu'
p185
F0.0003175909992942893
sS'mailto:Cynthia.Morneweck@oit.gatech.edu'
p186
F0.00026969561758637486
sS'http://research.cc.gatech.edu/gradbots'
p187
F0.00027412197047255334
sS'http://www.cc.gatech.edu/%7ecooperb'
p188
F0.00027108037159792765
sS'http://www-static.cc.gatech.edu/news'
p189
F0.000273027506071963
sS'http://www.cc.gatech.edu/~pxiong3'
p190
F0.00029007908023400125
sS'http://www.cc.gatech.edu/pset'
p191
F0.0003412958190163069
sS'http://www.cc.gatech.edu/CW2013'
p192
F0.0003222888489008458
sS'mailto:holly@cc.gatech.edu'
p193
F0.00030338494896722676
sS'https://www.webwork.cc.gatech.edu/webwork'
p194
F0.0002688699463692898
sS'http://analytics.gatech.edu'
p195
F0.00029622628159156833
sS'http://www.cats.gatech.edu/cats'
p196
F0.00030023034368653487
sS'http://gacomputes.cc.gatech.edu/contact-info?None&month:int=11&year:int=2014&orig_query=None'
p197
F0.0003450817040042488
sS'http://slash.gatech.edu/calendar'
p198
F0.0002809802857811607
sS'http://www.cc.gatech.edu/~ygu48'
p199
F0.0003945191602320382
sS'http://www.housing.gatech.edu'
p200
F0.0003194963190778306
sS'http://mikeb.inta.gatech.edu/research'
p201
F0.0003079789407016274
sS'http://wiki.cc.gatech.edu/brainlab'
p202
F0.0002683336946301467
sS'http://gacomputes.cc.gatech.edu/search_form?None&month:int=12&year:int=2014&orig_query=None#document'
p203
F0.0002652679385544622
sS'http://gacomputes.cc.gatech.edu/#portlet-navigation-tree'
p204
F0.00039039229085048577
sS'http://validator.w3.org/check?uri=http:'
p205
F0.00034871751750885745
sS'http://www.cc.gatech.edu/~brailing3'
p206
F0.0002958760458445388
sS'http://support.cc.gatech.edu'
p207
F0.0003331631872518487
sS'http://wiki.cc.gatech.edu/systems-studio'
p208
F0.0002683336946301467
sS'mailto:yuehuaw@cc.gatech.edu'
p209
F0.00027108037159792765
sS'http://iai.gatech.edu/people.shtml'
p210
F0.0003197795752403263
sS'http://www.cc.gatech.edu/~svoida'
p211
F0.00026969561758637486
sS'http://www.cc.gatech.edu/system'
p212
F0.0002734271271689967
sS'http://www.cercs.gatech.edu/projects'
p213
F0.0003910755002203459
sS'http://barrier-free.arch.gatech.edu/~amurphy'
p214
F0.00026969561758637486
sS'mailto:kalyan@cc.gatech.edu'
p215
F0.0002755377503357736
sS'http://www.gatech.edu/blogs'
p216
F0.0002918408811912737
sS'mailto:ahill@cc.gatech.edu'
p217
F0.0002847287554248263
sS'http://jupiter.cc.gatech.edu:8080/OpenCQ'
p218
F0.00027108037159792765
sS'http://gvu.gatech.edu/gvuevents'
p219
F0.0005261437955812004
sS'http://www.cc.gatech.edu/SOHOSec'
p220
F0.0003412958190163069
sS'mailto:colleen@cc.gatech.edu'
p221
F0.0002735769350290025
sS'http://wiki.cc.gatech.edu/IABExascale'
p222
F0.0002683336946301467
sS'http://www.cc.gatech.edu/~nancyn'
p223
F0.0002783723162445501
sS'http://gacomputes.cc.gatech.edu/search?Creator=jpdimond&sort_on=Date&sort_order=reverse'
p224
F0.0003098449729747778
sS'mailto:della@cc.gatech.edu'
p225
F0.000284027494085921
sS'https://wiki.cc.gatech.edu/CW2013'
p226
F0.0003222888489008458
sS'http://gacomputes.cc.gatech.edu/contact-info?None&month:int=10&year:int=2014&orig_query=None'
p227
F0.0004553988677657565
sS'http://www.cc.gatech.edu/~santosh'
p228
F0.0003598304468613627
sS'http://www.cc.gatech.edu/%7Eirfan'
p229
F0.0003777051458857219
sS'http://gacomputes.cc.gatech.edu'
p230
F0.0036353689979522776
sS'http://guzdial.cc.gatech.edu/Arizona.MOV'
p231
F0.0002838342865392026
sS'https://wiki.cc.gatech.edu/sofra'
p232
F0.0003412958190163069
sS'http://www.cc.gatech.edu/%7Epartha'
p233
F0.000273027506071963
sS'mailto:swiki-bugs@cc.gatech.edu'
p234
F0.0002735769350290025
sS'http://sonify.psych.gatech.edu'
p235
F0.000334773800462187
sS'http://collab.cc.gatech.edu'
p236
F0.00032392514311848687
sS'http://www.news.gatech.edu/2008'
p237
F0.00027596723704215507
sS'https://wiki.cc.gatech.edu/glimpses'
p238
F0.0003412958190163069
sS'http://www.math.gatech.edu/~andrzej'
p239
F0.00026969561758637486
sS'http://www-static.cc.gatech.edu/streaming'
p240
F0.000273027506071963
sS'http://www.aco.gatech.edu/req-comp.html#Probability'
p241
F0.0002766970153064052
sS'mailto:kamesh@cc.gatech.edu'
p242
F0.0002887134784152764
sS'http://www.finaid.gatech.edu/contacts'
p243
F0.00028121654709704165
sS'http://www.cc.gatech.edu/humanoids'
p244
F0.0002994645972931682
sS'http://swiki.cc.gatech.edu/CSE'
p245
F0.0003440481384725003
sS'http://gvu.gatech.edu/news'
p246
F0.000273027506071963
sS'http://research.cc.gatech.edu/eilab'
p247
F0.00034782346318041474
sS'http://www.cc.gatech.edu/directory'
p248
F0.00028281283404565715
sS'http://www.cc.gatech.edu/~rucheek'
p249
F0.0002887134784152764
sS'http://rim.gatech.edu'
p250
F0.00036092784087050266
sS'http://swiki.cc.gatech.edu:8080/WUAB'
p251
F0.00028702722812611677
sS'http://www.bme.gatech.edu/facultystaff'
p252
F0.0002783723162445501
sS'http://www.coursesurvey.gatech.edu'
p253
F0.00027468237941275533
sS'http://jacketpages.gatech.edu/organizations'
p254
F0.0002834692054638084
sS'comp.social.gatech.edu/papers/icwsm12.gossip.mitra.pdf'
p255
F0.000273027506071963
sS'https://wiki.cc.gatech.edu/cpl-internal'
p256
F0.0003412958190163069
sS'http://www.cc.gatech.edu/~wujx'
p257
F0.00026969561758637486
sS'http://www.cc.gatech.edu/muri'
p258
F0.00039764710275243226
sS'http://www.cc.gatech.edu/%7Ekwatra'
p259
F0.00030375731754556535
sS'https://wiki.cc.gatech.edu/facilities'
p260
F0.0003412958190163069
sS'https://wiki.cc.gatech.edu/collab-managers'
p261
F0.0003412958190163069
sS'mailto:brian.wills@cc.gatech.edu'
p262
F0.00026969561758637486
sS'http://gacomputes.cc.gatech.edu/accessibility-info#portlet-navigation-tree'
p263
F0.0004290789606729221
sS'http://users.ece.gatech.edu/~georgios'
p264
F0.0003213611835011412
sS'http://www.cc.gatech.edu/~bala'
p265
F0.00028398108986966254
sS'http://www.cc.gatech.edu/~bader'
p266
F0.0010205705534896692
sS'http://ubicomp.cc.gatech.edu'
p267
F0.00032258655391277364
sS'mailto:xinwei@lcc.gatech.edu'
p268
F0.00026969561758637486
sS'mailto:a.zook@gatech.edu'
p269
F0.0002697346593853361
sS'http://disl.cc.gatech.edu/CS8803_spring2007'
p270
F0.00027108037159792765
sS'http://www.gatech.edu/president'
p271
F0.00034645932944311116
sS'http://www.lawn.gatech.edu/help'
p272
F0.00030084260116600435
sS'http://www.cc.gatech.edu/~jlee716'
p273
F0.00028817924012309394
sS'mailto:fli@cc.gatech.edu'
p274
F0.0003576310302945529
sS'http://www.cercs.gatech.edu/seminar.html'
p275
F0.00029888415421869247
sS'http://www.cc.gatech.edu/~spencer'
p276
F0.00028443093591356536
sS'http://gacomputes.cc.gatech.edu/google7eb63c5b2f6157a4.html'
p277
F0.003290702841562961
sS'http://www.cc.gatech.edu/mode'
p278
F0.0002734271271689967
sS'http://home.cc.gatech.edu/hewner'
p279
F0.0003047578936488893
sS'http://www.cc.gatech.edu/~lhu31'
p280
F0.00028398108986966254
sS'http://www.cc.gatech.edu/dmirlab'
p281
F0.00027412197047255334
sS'http://guzdial.cc.gatech.edu/Mackinac.mov'
p282
F0.00029260720814601075
sS'http://www.gvu.gatech.edu/facilities'
p283
F0.0008291510414212953
sS'http://users.ece.gatech.edu/~cd91'
p284
F0.00027108037159792765
sS'mailto:gvu-webmaster@cc.gatech.edu'
p285
F0.00026969561758637486
sS'http://www.cc.gatech.edu/systems'
p286
F0.0005104063634349112
sS'http://www.arts.gatech.edu'
p287
F0.0003496939881494792
sS'http://www.cc.gatech.edu/~ntclark'
p288
F0.0002698833152670308
sS'http://www.cc.gatech.edu/~ksiu3'
p289
F0.0003629565009976162
sS'https://oscar.gatech.edu/pls'
p290
F0.00032832951545065973
sS'https://wiki.cc.gatech.edu/garment'
p291
F0.0003412958190163069
sS'http://ipat.gatech.edu/gt-professors-illuminate-tedxpeachtree'
p292
F0.000305440550097563
sS'https://support.cc.gatech.edu/resources'
p293
F0.00028006563969720273
sS'http://www.cbi.gatech.edu/mmdb'
p294
F0.00032598738117285404
sS'http://dev.cc.gatech.edu/sites'
p295
F0.00028702722812611677
sS'http://www.cc.gatech.edu/%7Emmodahl'
p296
F0.0003010035659932652
sS'http://www.cc.gatech.edu/~vmahalin'
p297
F0.0002906105653750771
sS'http://egovision12.cc.gatech.edu/program.htm'
p298
F0.001781901668986823
sS'http://wiki.cc.gatech.edu/intelnonnumeric'
p299
F0.0002683336946301467
sS'http://cm.gatech.edu'
p300
F0.00034514009597702664
sS'http://www.cbs.gatech.edu'
p301
F0.0004228544139699772
sS'http://wcc.gatech.edu/exhibition'
p302
F0.00029384126223646706
sS'http://wiki.cc.gatech.edu/remoterepair'
p303
F0.0002683336946301467
sS'https://faq.oit.gatech.edu/my-gatech'
p304
F0.000283306740565882
sS'https://wiki.cc.gatech.edu/shapebank'
p305
F0.0003412958190163069
sS'http://www.cc.gatech.edu/~sangeeta'
p306
F0.0002942509016509739
sS'http://www.gvu.gatech.edu/homecoming-2014'
p307
F0.00031212261298017955
sS'http://www.cc.gatech.edu/~paradise'
p308
F0.00026969561758637486
sS'mailto:denton@cc.gatech.edu'
p309
F0.00037914156600203847
sS'http://www.cc.gatech.edu/%7Ejiangf'
p310
F0.00026969561758637486
sS'http://www.cc.gatech.edu/~tpushkar'
p311
F0.00028438232026380697
sS'http://wiki.cc.gatech.edu/gtisc'
p312
F0.0002683336946301467
sS'http://www.cc.gatech.edu/aggregator'
p313
F0.0003017425182757854
sS'http://www.cc.gatech.edu/~ahumayun'
p314
F0.000475668461468278
sS'http://www.cc.gatech.edu/~wenke'
p315
F0.00028298769295711867
sS'http://www.cc.gatech.edu/~ybai30'
p316
F0.00044074553469620006
sS'http://coweb.cc.gatech.edu/cs1315'
p317
F0.0006584907657034553
sS'http://honor.gatech.edu/plugins'
p318
F0.0003061864745643772
sS'http://autism.cc.gatech.edu/index.html'
p319
F0.00028772845854070097
sS'http://www.ic.gatech.edu/future'
p320
F0.0004681542304306796
sS'mailto:japoovey@gatech.edu'
p321
F0.0002958760458445388
sS'mailto:anne.balsamo@lcc.gatech.edu'
p322
F0.00026969561758637486
sS'http://www.cbi.gatech.edu/CBSICCV2013'
p323
F0.00032598738117285404
sS'http://www.cc.gatech.edu/%7Edovrolis'
p324
F0.000292646942251053
sS'http://www.cc.gatech.edu/~khot'
p325
F0.0002741125084824956
sS'https://wiki.cc.gatech.edu/gtiscsrg'
p326
F0.0003412958190163069
sS'http://www.robotics.gatech.edu'
p327
F0.0005515922002970483
sS'http://gvu.gatech.edu/research'
p328
F0.0002917983607726173
sS'http://home.cc.gatech.edu/teaparty'
p329
F0.0005095728805023524
sS'http://gacomputes.cc.gatech.edu/search?Creator=bjordin&sort_on=Date&sort_order=reverse'
p330
F0.0003098449729747778
sS'mailto:mjacobs30@gatech.edu'
p331
F0.0003200353491603578
sS'http://wiki.cc.gatech.edu/remrem'
p332
F0.0002683336946301467
sS'http://wiki.cc.gatech.edu/gvu'
p333
F0.000305470993191867
sS'http://www.cos.gatech.edu/people'
p334
F0.000273027506071963
sS'http://www.cc.gatech.edu/ael'
p335
F0.00037051113985710866
sS'http://sonify.psych.gatech.edu/%7Ewalkerb'
p336
F0.0002783723162445501
sS'http://www.cc.gatech.edu/vaccine'
p337
F0.00032866475627617064
sS'http://gacomputes.cc.gatech.edu/Members#portlet-navigation-tree'
p338
F0.00036472035577544065
sS'http://wiki.cc.gatech.edu/cruise'
p339
F0.0002683336946301467
sS'http://cleanroom.ien.gatech.edu'
p340
F0.0002751031774828975
sS'https://research.cc.gatech.edu/gradbots'
p341
F0.00035069539803053875
sS'http://www.cc.gatech.edu/awards'
p342
F0.0003635370868511655
sS'http://www.tsrb.gatech.edu/events'
p343
F0.00030084260116600435
sS'http://www.cc.gatech.edu/alumni'
p344
F0.00031088466683156906
sS'http://www.cc.gatech.edu/comparch'
p345
F0.0003412958190163069
sS'http://gacomputes.cc.gatech.edu/search?Creator=bjordin&sort_on=Date&sort_order=reverse&month:int=10&'
p346
F0.0002652679385544622
sS'http://www.gvu.gatech.edu/user_surveys'
p347
F0.00026969561758637486
sS'http://home.cc.gatech.edu/jlk'
p348
F0.00028905518122526676
sS'http://swiki.cc.gatech.edu:8080/gvu-alum'
p349
F0.00026969561758637486
sS'https://wiki.cc.gatech.edu/sml'
p350
F0.0003412958190163069
sS'http://guzdial.cc.gatech.edu'
p351
F0.00027837919440421537
sS'http://www.prism.gatech.edu/%7egtg470c'
p352
F0.00027108037159792765
sS'http://www-static.cc.gatech.edu/%7Emihail'
p353
F0.000273027506071963
sS'http://gacomputes.cc.gatech.edu/sitemap?None&month:int=2&year:int=2015&orig_query=None'
p354
F0.0002769755754923359
sS'http://gacomputes.cc.gatech.edu/contact-info?None&month:int=2&year:int=2015&orig_query=None'
p355
F0.00027762025280298223
sS'http://www.workabroad.gatech.edu'
p356
F0.00028121654709704165
sS'http://www.cc.gatech.edu/education'
p357
F0.0005009885303898908
sS'http://www.cc.gatech.edu/dynamo'
p358
F0.0003380789969857114
sS'http://www.lcc.gatech.edu/~sstrickland'
p359
F0.00026969561758637486
sS'https://wiki.cc.gatech.edu/synlab'
p360
F0.0003412958190163069
sS'http://gacomputes.cc.gatech.edu/mail_password_form?None&month:int=10&year:int=2014&orig_query=None#p'
p361
F0.0002652679385544622
sS'mailto:lili@cc.gatech.edu'
p362
F0.0002688699463692898
sS'http://www.cc.gatech.edu/dynodroid'
p363
F0.0002734271271689967
sS'http://home.cc.gatech.edu/ccl'
p364
F0.0002759508035351789
sS'http://trac.research.cc.gatech.edu/graphs'
p365
F0.0004664596730394397
sS'mailto:rameshc@cc.gatech.edu'
p366
F0.0002847287554248263
sS'http://wiki.cc.gatech.edu/3dpvt08'
p367
F0.0002683336946301467
sS'http://noise.gatech.edu'
p368
F0.000271369406034766
sS'http://www.cc.gatech.edu/~akundu7'
p369
F0.00032598738117285404
sS'http://www.cc.gatech.edu/~cdshaw'
p370
F0.00026969561758637486
sS'http://borg.cc.gatech.edu/html'
p371
F0.0003171414885540713
sS'http://www.cc.gatech.edu/~smallidi'
p372
F0.0002887134784152764
sS'http://www.cc.gatech.edu'
p373
F0.00852489845163452
sS'http://gacomputes.cc.gatech.edu/author?None&month:int=11&year:int=2014&orig_query=None'
p374
F0.0003353817538058415
sS'http://www.cc.gatech.edu/regdates'
p375
F0.0004072997246544768
sS'http://www.prism.gatech.edu/~gtg470c'
p376
F0.00027108037159792765
sS'http://egovision12.cc.gatech.edu/egovision12_cfp.pdf'
p377
F0.000485546537617119
sS'http://www.cc.gatech.edu/RIMChat'
p378
F0.0003412958190163069
sS'http://acmelab.gatech.edu/?p=3521'
p379
F0.0002690648584137492
sS'http://dilab.gatech.edu/ii'
p380
F0.00033538099867593994
sS'http://www.cc.gatech.edu/keypoints'
p381
F0.0003347155830263797
sS'http://robotics.gatech.edu/team'
p382
F0.000273027506071963
sS'http://swiki.cc.gatech.edu:8080/cs3911fall02'
p383
F0.00027108037159792765
sS'MAILTO:ertmann@cc.gatech.edu'
p384
F0.0002809802857811607
sS'http://www.oie.gatech.edu/apply'
p385
F0.00028121654709704165
sS'http://gacomputes.cc.gatech.edu/publications#portlet-navigation-tree'
p386
F0.00041775868667714213
sS'mailto:rc7@prism.gatech.edu'
p387
F0.00026969561758637486
sS'mailto:jd@gatech.edu'
p388
F0.0002697346593853361
sS'http://users.ece.gatech.edu/~ckim314'
p389
F0.00032598738117285404
sS'http://cc.gatech.edu/morale'
p390
F0.0002809802857811607
sS'https://wiki.cc.gatech.edu/walllab'
p391
F0.0003412958190163069
sS'http://wiki.cc.gatech.edu/tso-projects'
p392
F0.0002683336946301467
sS'http://www-static.cc.gatech.edu/%7Ekekechen'
p393
F0.00027108037159792765
sS'http://www.cc.gatech.edu/~bli46'
p394
F0.0004945423999877077
sS'http://www.cc.gatech.edu/cercs'
p395
F0.0003501498509343981
sS'http://www.cc.gatech.edu/%7Echz'
p396
F0.00035822380072843247
sS'http://www.cc.gatech.edu/symposium'
p397
F0.0003351953744415918
sS'http://www.oit.gatech.edu/service'
p398
F0.0003195409748865426
sS'http://aiide12.gatech.edu'
p399
F0.0004756553273356896
sS'http://www.cc.gatech.edu/~rmehta'
p400
F0.00031527647998813335
sS'http://swiki.cc.gatech.edu/cs7260-sp07'
p401
F0.000292646942251053
sS'mailto:bstreich@cc.gatech.edu'
p402
F0.000273027506071963
sS'http://users.ece.gatech.edu/justin'
p403
F0.00027894673344271685
sS'http://home.cc.gatech.edu/arya'
p404
F0.0002865440872662862
sS'mailto:weihan@cc.gatech.edu'
p405
F0.0002755377503357736
sS'mailto:pesti@cc.gatech.edu'
p406
F0.0002688699463692898
sS'http://www.gtevents.gatech.edu/virtualems'
p407
F0.00030084260116600435
sS'mailto:morale-support@cc.gatech.edu'
p408
F0.0002809802857811607
sS'mailto:kippster@cc.gatech.edu'
p409
F0.0002847287554248263
sS'https://wiki.cc.gatech.edu/arriaga'
p410
F0.0003412958190163069
sS'http://www.cc.gatech.edu/weather'
p411
F0.0002838342865392026
sS'http://tsc.oit.gatech.edu'
p412
F0.0005039785622949668
sS'https://wiki.cc.gatech.edu/designcomp'
p413
F0.00031681297246521396
sS'http://www.cc.gatech.edu/~sumit'
p414
F0.00031616877323489476
sS'http://www.gatech.edu/gallery'
p415
F0.000273027506071963
sS'http://wiki.cc.gatech.edu/firefly'
p416
F0.0002683336946301467
sS'mailto:webmaster@cc.gatech.edu'
p417
F0.00027108037159792765
sS'mailto:gth705y@mail.gatech.edu'
p418
F0.0002847287554248263
sS'http://wiki.cc.gatech.edu/humanoids'
p419
F0.0002683336946301467
sS'http://titanium.lcc.gatech.edu/~cavery'
p420
F0.00026969561758637486
sS'http://www.cbid.gatech.edu'
p421
F0.0002783723162445501
sS'http://www.gvu.gatech.edu'
p422
F0.0012892255441219107
sS'http://www.admission.gatech.edu/meetcounselor'
p423
F0.00028121654709704165
sS'http://gacomputes.cc.gatech.edu/search_rss?Creator=steven&sort_on=Date&sort_order=reverse'
p424
F0.00027843634996967625
sS'http://www.cc.gatech.edu/~jj187'
p425
F0.000292646942251053
sS'http://mikeb.inta.gatech.edu/publications'
p426
F0.0003079789407016274
sS'http://wiki.cc.gatech.edu/ebd'
p427
F0.0002683336946301467
sS'http://www.cc.gatech.edu/gtisc'
p428
F0.0003412958190163069
sS'http://cda.gatech.edu'
p429
F0.0003367300440212888
sS'http://www.cc.gatech.edu/OpenSensing'
p430
F0.0004982716144301893
sS'http://www.ece.gatech.edu/~skang3'
p431
F0.00030625837390647133
sS'http://www.cc.gatech.edu//meta.wikimedia.org/wiki/Help:Content'
p432
F0.00032609024292393804
sS'mailto:dtn-gt-owner@cc.gatech.edu'
p433
F0.00028713445888880774
sS'http://wiki.cc.gatech.edu/vms'
p434
F0.0002683336946301467
sS'http://pag.gatech.edu/chord'
p435
F0.0002734271271689967
sS'http://www.undergradresearch.gatech.edu'
p436
F0.000273027506071963
sS'http://www.ece.gatech.edu/~radhika'
p437
F0.00028398108986966254
sS'http://www.cc.gatech.edu/~dchau'
p438
F0.000476779799330415
sS'http://fab.gatech.edu'
p439
F0.000273027506071963
sS'http://gvu.gatech.edu/node'
p440
F0.000273027506071963
sS'http://www.cc.gatech.edu/~abilgen'
p441
F0.00028173289981191864
sS'http://www.cc.gatech.edu/%7Eyiyih'
p442
F0.00033084479703184174
sS'mailto:mbankoff@cc.gatech.edu'
p443
F0.00030338494896722676
sS'http://mined.gatech.edu'
p444
F0.0002783723162445501
sS'http://minnow.cc.gatech.edu/swiki'
p445
F0.006369886846233677
sS'http://www.cc.gatech.edu/features'
p446
F0.0015342463169336735
sS'http://wiki.cc.gatech.edu/roles'
p447
F0.0002683336946301467
sS'http://cssb.biology.gatech.edu/facilities'
p448
F0.00030084260116600435
sS'http://www.cc.gatech.edu/~jellis'
p449
F0.00026969561758637486
sS'http://www.gatech.edu/acm'
p450
F0.000284027494085921
sS'http://libguides.gatech.edu/onmark'
p451
F0.00031088466683156906
sS'http://www.cc.gatech.edu/~blair'
p452
F0.00037701690249309164
sS'http://www.cc.gatech.edu/~fabianb'
p453
F0.0002698833152670308
sS'http://www.gvu.gatech.edu/%7Ejohn.stasko'
p454
F0.000284027494085921
sS'https://lists.gatech.edu/sympa'
p455
F0.000592387870597504
sS'http://titanium.lcc.gatech.edu/~ckarnasuta'
p456
F0.00026969561758637486
sS'http://www.cc.gatech.edu/glimpses'
p457
F0.0003412958190163069
sS'http://www.cc.gatech.edu/s'
p458
F0.0005206134729892384
sS'http://gacomputes.cc.gatech.edu/search?Creator=yardi&sort_on=Date&sort_order=reverse#documentContent'
p459
F0.00027723922165920226
sS'http://www.cc.gatech.edu/hpc'
p460
F0.00028281283404565715
sS'http://www.cc.gatech.edu/~irfan'
p461
F0.0003824140667209635
sS'http://egovision12.cc.gatech.edu/cfp.htm'
p462
F0.001814059128907384
sS'http://www.cc.gatech.edu/~berman'
p463
F0.00026969561758637486
sS'http://www.cc.gatech.edu/geom'
p464
F0.00029019511248799584
sS'http://www-static.cc.gatech.edu/program'
p465
F0.000273027506071963
sS'mailto:kenneth.knoespel@lcc.gatech.edu'
p466
F0.00026969561758637486
sS'http://codingbat.com/home'
p467
F0.00028562922747717287
sS' http://inventing.gatech.edu'
p468
F0.00027832946843326154
sS'http://www.cc.gatech.edu/~rk'
p469
F0.00028398108986966254
sS'http://coweb.cc.gatech.edu/cs1316'
p470
F0.0005990889972863079
sS'http://wiki.cc.gatech.edu/cellbuzz'
p471
F0.0003878475788366604
sS'http://www.cc.gatech.edu/~mnaik7'
p472
F0.0002783723162445501
sS'http://wiki.cc.gatech.edu/ael'
p473
F0.0002683336946301467
sS'http://www.cc.gatech.edu/~mwolf'
p474
F0.000301700844272319
sS'https://wiki.cc.gatech.edu/si-machines'
p475
F0.0002906105653750771
sS'http://toonces.cc.gatech.edu/users'
p476
F0.0002887134784152764
sS'http://www.ti.gatech.edu'
p477
F0.00042864951598119616
sS'http://www.cc.gatech.edu/~robinson'
p478
F0.00027569574831049626
sS'mailto:jpermar@gatech.edu'
p479
F0.0002697346593853361
sS'https://smartech.gatech.edu/handle'
p480
F0.00031986222867092987
sS'http://www.honor.gatech.edu'
p481
F0.00032365321593827917
sS'http://www.scs.gatech.edu'
p482
F0.0023149292189205153
sS'http://www.cc.gatech.edu/~lex'
p483
F0.00026969561758637486
sS'https://wiki.cc.gatech.edu/dil'
p484
F0.0003412958190163069
sS'http://www.cc.gatech.edu/contact-info'
p485
F0.0004175319213778822
sS'http://gacomputes.cc.gatech.edu/front-page'
p486
F0.0005231812638703694
sS'http://www.cc.gatech.edu/~cat'
p487
F0.00026969561758637486
sS'http://www.ece.gatech.edu/faculty-staff'
p488
F0.00033036145825515967
sS'http://wiki.cc.gatech.edu/robocup'
p489
F0.0003407411999332873
sS'http://www.gatech.edu/technology-square'
p490
F0.00032390748455231593
sS'http://www.cc.gatech.edu/bostoninterns'
p491
F0.0002735769350290025
sS'http://admission.gatech.edu/apply'
p492
F0.0007158489168357927
sS'http://cssb.biology.gatech.edu'
p493
F0.0002887134784152764
sS'http://cbi.gatech.edu/salobj'
p494
F0.00032598738117285404
sS'mailto:theory-owner@cc.gatech.edu'
p495
F0.00028713445888880774
sS'http://www.hsi.gatech.edu/rebo'
p496
F0.00028242014367132903
sS'http://gacomputes.cc.gatech.edu/login_form#documentContent'
p497
F0.0005489406843150781
sS'http://www.lcc.gatech.edu'
p498
F0.0002793049704891273
sS'mailto:jim.foley@cc.gatech.edu'
p499
F0.0002998170580859218
sS'mailto:chintan@cc.gatech.edu'
p500
F0.0002847287554248263
sS'http://gacomputes.cc.gatech.edu/mail_password_form?None&month:int=12&year:int=2014&orig_query=None#d'
p501
F0.0002652679385544622
sS'mailto:cga@cc.gatech.edu'
p502
F0.000271369406034766
sS'http://www.cc.gatech.edu/external-news'
p503
F0.000350559366564577
sS'http://www.isye.gatech.edu/people'
p504
F0.00026969561758637486
sS'http://gacomputes.cc.gatech.edu/mail_password_form?None&month:int=12&year:int=2014&orig_query=None#p'
p505
F0.0002652679385544622
sS'http://www.cc.gatech.edu/infrastructure'
p506
F0.0003412958190163069
sS'http://www.cc.gatech.edu/~vazirani'
p507
F0.0005165538087491009
sS'http://wiki.cc.gatech.edu/sensor-lab'
p508
F0.0003394010716661264
sS'http://www.cc.gatech.edu/cpl-internal'
p509
F0.0003412958190163069
sS'http://www.cc.gatech.edu/~lofstead'
p510
F0.0002698833152670308
sS'http://www.cc.gatech.edu/~virendra'
p511
F0.00029392135419258243
sS'http://gacomputes.cc.gatech.edu/contact-info#portlet-navigation-tree'
p512
F0.0004290789606729221
sS'http://mshci.gatech.edu'
p513
F0.00030297583666869616
sS'http://www.cc.gatech.edu/~hyoon45'
p514
F0.0003397909517355731
sS'http://www.srl.gatech.edu/people'
p515
F0.00026969561758637486
sS' http://www.cc.gatech.edu/~coolpix'
p516
F0.00026969561758637486
sS'http://www.techsym.cc.gatech.edu'
p517
F0.0002751888510406943
sS'http://www.admission.gatech.edu/apply'
p518
F0.0003656674140561806
sS'mailto:casey.fiesler@gatech.edu'
p519
F0.0002697346593853361
sS'http://medvault.gtisc.gatech.edu'
p520
F0.0002893708631137324
sS'mailto:john.goldthwaite@arch.gatech.edu'
p521
F0.00026969561758637486
sS'http://www.cc.gatech.edu/~ellendo'
p522
F0.0003568167655842638
sS'http://dilab.gatech.edu/gaia-adaptive-game-playing-agents'
p523
F0.00027832946843326154
sS'http://www.cc.gatech.edu/streaming'
p524
F0.0003594778344955899
sS'http://www.cc.gatech.edu/gtiscsrg'
p525
F0.0003412958190163069
sS'https://wiki.cc.gatech.edu/theory'
p526
F0.0004045188071394786
sS'http://gacomputes.cc.gatech.edu/author?None&month:int=10&year:int=2014&orig_query=None#portlet-navig'
p527
F0.0002652679385544622
sS'http://www.cc.gatech.edu/~marshini'
p528
F0.00028173289981191864
sS'http://gacomputes.cc.gatech.edu/Members#documentContent'
p529
F0.00036472035577544065
sS'http://www.prism.gatech.edu/~jyoung9'
p530
F0.0002783723162445501
sS'http://www.cc.gatech.edu/%7ezhangjj'
p531
F0.00027108037159792765
sS'http://www.cc.gatech.edu/~hmeyerhe'
p532
F0.0005067025837056259
sS'mailto:kacb-fac@mailman.cc.gatech.edu'
p533
F0.00028713445888880774
sS'http://dhlab.lmc.gatech.edu'
p534
F0.00032231946879714065
sS'https://support.cc.gatech.edu/sites'
p535
F0.00028016939241571346
sS'mailto:goodman@cc.gatech.edu'
p536
F0.0003244220560098374
sS'mailto:ashok.goel@cc.gatech.edu'
p537
F0.00026969561758637486
sS'http://www-static.cc.gatech.edu/fac'
p538
F0.00036814608369073015
sS'http://inventureprize.gatech.edu'
p539
F0.000273027506071963
sS'http://wiki.cc.gatech.edu/bcn'
p540
F0.0002683336946301467
sS'http://gacomputes.cc.gatech.edu/search?Creator=yardi&sort_on=Date&sort_order=reverse'
p541
F0.0003098449729747778
sS'http://www.cc.gatech.edu/~cberlind'
p542
F0.00028438232026380697
sS'http://gtcmt.gatech.edu'
p543
F0.00028548755536116657
sS'http://wiki.cc.gatech.edu/awl'
p544
F0.0002683336946301467
sS'http://www.cos.gatech.edu'
p545
F0.000273027506071963
sS'http://www.chi.gatech.edu/2014'
p546
F0.00038175800020361675
sS'http://www.cse.cc.gatech.edu'
p547
F0.000273027506071963
sS'http://www.cc.gatech.edu/index.shtml~'
p548
F0.0002751888510406943
sS'http://www.gtri.gatech.edu/ctisl'
p549
F0.000271714421364024
sS'http://support.cc.gatech.edu/support-tools'
p550
F0.000333091320152325
sS'http://www.cc.gatech.edu/~rwf'
p551
F0.0002783723162445501
sS'hittp://www.cc.gatech.edu/~lingliu'
p552
F0.0002893708631137324
sS'MAILTO:anton@cc.gatech.edu'
p553
F0.0002809802857811607
sS'http://www.cc.gatech.edu/%7Eshawj'
p554
F0.00026969561758637486
sS'mailto:leomark@cc.gatech.edu'
p555
F0.00034362065988208983
sS'http://www.gatech.edu/oit'
p556
F0.0003053937603313212
sS'http://www.pe.gatech.edu/subjects'
p557
F0.0003282895392156999
sS'http://www.cc.gatech.edu/pixi'
p558
F0.0003486697662299828
sS'http://www.hsi.gatech.edu/erfuture'
p559
F0.00028242014367132903
sS'mailto:kacb-fac-owner@mailman.cc.gatech.edu'
p560
F0.00028713445888880774
sS'https://wiki.cc.gatech.edu/systems-lab'
p561
F0.0003412958190163069
sS'http://www.gatech.edu/TechHome.html'
p562
F0.0003728762459056043
sS'http://www.ceismc.gatech.edu/summerprograms'
p563
F0.00028562922747717287
sS'http://www.cc.gatech.edu/~bdutt'
p564
F0.00026969561758637486
sS'https://epay.gatech.edu/C20793_ustores'
p565
F0.000321203890088715
sS'http://www.cc.gatech.edu/external.affairs'
p566
F0.00026969561758637486
sS'http://cc.gatech.edu/~rehg'
p567
F0.00030375731754556535
sS'https://wiki.cc.gatech.edu/chi2010'
p568
F0.0003412958190163069
sS' http://www.cc.gatech.edu/classes'
p569
F0.00027832946843326154
sS'mailto:brobert@cc.gatech.edu'
p570
F0.00030338494896722676
sS'http://www.whistle.gatech.edu/archives'
p571
F0.0003413249688594512
sS'http://flamel.gatech.edu/workshop-2014'
p572
F0.00030338494896722676
sS'mailto:cseim6@mail.gatech.edu'
p573
F0.0002697346593853361
sS'mailto:larry.freil@gatech.edu'
p574
F0.0002697346593853361
sS'http://gacomputes.cc.gatech.edu/search?Creator=ericson&sort_on=Date&sort_order=reverse'
p575
F0.0003098449729747778
sS'http://www.ce.gatech.edu/Faculty'
p576
F0.00026969561758637486
sS'http://www.cc.gatech.edu/index.shtml.save'
p577
F0.0002751888510406943
sS'http://www.gvu.gatech.edu/people'
p578
F0.0004483013537481877
sS'http://www.gatech.edu/profiles'
p579
F0.000273027506071963
sS'http://research.cc.gatech.edu/inc'
p580
F0.0002857285517933851
sS'http://minnow.cc.gatech.edu/squeak.1'
p581
F0.00027108037159792765
sS'https://wiki.cc.gatech.edu/MedVault'
p582
F0.0003412958190163069
sS'http://www.cc.gatech.edu/%7Erehg'
p583
F0.0003148786416223973
sS'http://wiki.cc.gatech.edu/cse-curriculum'
p584
F0.0002683336946301467
sS'http://gacomputes.cc.gatech.edu/news'
p585
F0.003290702841562961
sS'http://www.me.gatech.edu'
p586
F0.00026969561758637486
sS'MAILTO:melody@cc.gatech.edu>melody@cc.gatech.edu'
p587
F0.0002755377503357736
sS'http://gtisc.cc.gatech.edu/~cisec'
p588
F0.0003699507332780715
sS'http://gacomputes.cc.gatech.edu/author?None&month:int=8&year:int=2014&orig_query=None'
p589
F0.0002774239442851912
sS'http://www-static.cc.gatech.edu/~anandm'
p590
F0.0002688699463692898
sS'http://www.sic.gatech.edu/contact'
p591
F0.00032387294536138483
sS'http://people.math.gatech.edu/~wperkins3'
p592
F0.00029581139701574996
sS'http://home.cc.gatech.edu/lijun'
p593
F0.0003047578936488893
sS'http://www.lcc.gatech.edu/faculty'
p594
F0.00026969561758637486
sS'http://www.cc.gatech.edu/%7Eathomaz'
p595
F0.0004530658852796844
sS'http://wiki.cc.gatech.edu/aquarium'
p596
F0.0002683336946301467
sS'mailto:sven.koenig@cc.gatech.edu'
p597
F0.00026969561758637486
sS'http://gacomputes.cc.gatech.edu/search_form?None&month:int=10&year:int=2014&orig_query=None#portlet-'
p598
F0.0002652679385544622
sS'mailto:jeff.wilson@bitc.gatech.edu'
p599
F0.00026969561758637486
sS'http://www.oit.gatech.edu/students'
p600
F0.00030354771053525123
sS'http://www.cc.gatech.edu/~bowring'
p601
F0.00027450409976489384
sS'http://robotics.gatech.edu/hg'
p602
F0.000273027506071963
sS'http://www.robotics.gatech.edu/index.php?option=com_content&task=view&id=939&Itemid=567'
p603
F0.00032702268395720907
sS'mailto:chandler@cc.gatech.edu'
p604
F0.0002962260398045299
sS'http://www.iai.gatech.edu'
p605
F0.00035700433249472973
sS'http://www.cc.gatech.edu/~mnelson'
p606
F0.0004138217269836766
sS'http://www.cc.gatech.edu/people'
p607
F0.0024975402038729952
sS'mailto:gregory.corso@psych.gatech.edu'
p608
F0.00026969561758637486
sS'http://www.oscarweb.gatech.edu/fall'
p609
F0.00027784994727251703
sS'mailto:Elba@cc.gatech.edu'
p610
F0.00029007908023400125
sS'http://www.coop.gatech.edu'
p611
F0.0003118435741349413
sS'http://www.cc.gatech.edu/~zha'
p612
F0.00029205111113280477
sS'http://fellowships.gatech.edu'
p613
F0.00038175800020361675
sS'http://www.pace.gatech.edu/node'
p614
F0.0002690648584137492
sS'mailto:norberto.ezquerra@cc.gatech.edu'
p615
F0.00026969561758637486
sS'http://www.cc.gatech.edu/~turk'
p616
F0.0005825813729863184
sS'http://www.cc.gatech.edu/~fzheng'
p617
F0.00028398108986966254
sS'http://gacomputes.cc.gatech.edu/search_form#portlet-navigation-tree'
p618
F0.0004290789606729221
sS'http://www.cc.gatech.edu//www.cc.gatech.edu/cc'
p619
F0.0002783723162445501
sS'mailto:cc-futureundergrads@lists.gatech.edu?subject=Visit to the College of Computing'
p620
F0.00028121654709704165
sS'http://www.cc.gatech.edu/GSCGuide'
p621
F0.0003412958190163069
sS'http://gacomputes.cc.gatech.edu/mail_password_form?None&month:int=9&year:int=2014&orig_query=None'
p622
F0.00030260154970512126
sS'http://smartech.gatech.edu/handle'
p623
F0.0005228585105633506
sS'http://wiki.cc.gatech.edu/eye-team'
p624
F0.0002683336946301467
sS'http://www.cc.gatech.edu/vtg'
p625
F0.0003412958190163069
sS'http://cpl.cc.gatech.edu/IWVS_2014'
p626
F0.000325987381172854
sS'http://www.cc.gatech.edu/partnerships'
p627
F0.00033865303519833466
sS'http://www.cc.gatech.edu/dil'
p628
F0.00035435734889510624
sS'http://www.cc.gatech.edu/~rajnish'
p629
F0.0002698833152670308
sS'http://www.cc.gatech.edu/cvpr09-org'
p630
F0.0003412958190163069
sS'http://www.cc.gatech.edu/ugrads'
p631
F0.0019632250346633415
sS'http://www.ti.gatech.edu/basole'
p632
F0.0003436744907706974
sS'http://www.cc.gatech.edu/contactus.html'
p633
F0.00027108037159792765
sS'http://www.aco.gatech.edu/dissert'
p634
F0.00031527647998813335
sS'mailto:photography-owner@cc.gatech.edu'
p635
F0.00028713445888880774
sS'https://wiki.cc.gatech.edu/systems-studio'
p636
F0.0003412958190163069
sS'https://wiki.cc.gatech.edu/appwiki'
p637
F0.0003412958190163069
sS'file://///ccsamba.cc.gatech.edu/npolite3/www-ice/summerc.htm'
p638
F0.00027444441244828764
sS'http://www.cc.gatech.edu/specialization'
p639
F0.0002697346593853361
sS'http://drupal.gatech.edu'
p640
F0.0002918408811912737
sS'https://wiki.cc.gatech.edu/cercscloud'
p641
F0.0003032818787853846
sS'http://gtisc.gatech.edu/edInit.htm'
p642
F0.000273027506071963
sS'http://www.successprograms.gatech.edu'
p643
F0.0002834692054638084
sS'http://gacomputes.cc.gatech.edu/projects'
p644
F0.0035743755873235755
sS'http://www.cerc.gatech.edu'
p645
F0.0002690648584137492
sS'http://www.cc.gatech.edu/changelog.php'
p646
F0.0003072217592554148
sS'http://www.cc.gatech.edu/holiday-gift-guide'
p647
F0.000273027506071963
sS'mailto:dnguyen@cc.gatech.edu'
p648
F0.00030096608129940856
sS'http://minnow.cc.gatech.edu/squeak'
p649
F0.0003286389386225285
sS'http://wiki.cc.gatech.edu/folklore'
p650
F0.00028754990302590314
sS'http://gvu.cc.gatech.edu/what'
p651
F0.0002822432808137772
sS'http://wiki.cc.gatech.edu/systems'
p652
F0.00027294907134271524
sS'http://www.cc.gatech.edu/%7emudhakar'
p653
F0.00027108037159792765
sS'https://wiki.cc.gatech.edu/GWNN'
p654
F0.0003222888489008458
sS'http://www.cc.gatech.edu/hpcprojs'
p655
F0.00048316307916982895
sS'https://research.cc.gatech.edu/inc'
p656
F0.0004755705419851732
sS'http://www.arts.gatech.edu/about'
p657
F0.0003496939881494792
sS'mailto:mikhail.jacob@gatech.edu'
p658
F0.0003816471892231047
sS'http://robotics.gatech.edu'
p659
F0.0005982500809075175
sS'https://wiki.cc.gatech.edu/intelnonnumeric'
p660
F0.0003412958190163069
sS'http://cisec.cc.gatech.edu'
p661
F0.00033040761864734425
sS'http://encore.noise.gatech.edu'
p662
F0.00027596723704215507
sS'http://www.prism.gatech.edu/~dkohlsdorf6'
p663
F0.000341797351771753
sS'http://www.prism.gatech.edu/~gte310v'
p664
F0.00027450409976489384
sS'http://home.cc.gatech.edu/gacomputes'
p665
F0.0005905989519068459
sS'http://maps.gatech.edu/d7'
p666
F0.000271369406034766
sS'http://www.gatech.edu/calendar'
p667
F0.0002900842845632868
sS'http://www.cc.gatech.edu/~mhu32'
p668
F0.0002697346593853361
sS'http://support.cc.gatech.edu/resources'
p669
F0.00040322027841116487
sS'http://www.psychology.gatech.edu/gatech'
p670
F0.00026969561758637486
sS'http://www-static.cc.gatech.edu/tso'
p671
F0.0003032818787853846
sS'http://users.ece.gatech.edu/~leehs'
p672
F0.000301700844272319
sS'http://www.cc.gatech.edu/%7Esandip'
p673
F0.0002698833152670308
sS'http://www.bst.bme.gatech.edu'
p674
F0.0002783723162445501
sS'http://gacomputes.cc.gatech.edu/search?Creator=bjordin&sort_on=Date&sort_order=reverse#portlet-navig'
p675
F0.0002652679385544622
sS'http://gacomputes.cc.gatech.edu/projects#portlet-navigation-tree'
p676
F0.00043714846915735066
sS'mailto:mediacomp-teach@cc.gatech.edu'
p677
F0.00028713445888880774
sS'https://research.cc.gatech.edu/HyVM'
p678
F0.00027412197047255334
sS'http://www.cc.gatech.edu/hcc'
p679
F0.0002824309669470936
sS'http://wiki.cc.gatech.edu/webscience'
p680
F0.0002683336946301467
sS'http://www.cc.gatech.edu/activities'
p681
F0.0003412958190163069
sS'http://gvu-web2.cc.gatech.edu/research'
p682
F0.00031212261298017955
sS'http://borg.cc.gatech.edu/gnats'
p683
F0.0002865440872662862
sS'http://www.cc.gatech.edu/~summetj'
p684
F0.0003047578936488893
sS'mailto:monique.tavares@carnegie.gatech.edu'
p685
F0.000273027506071963
sS'https://wiki.cc.gatech.edu/ael'
p686
F0.0003412958190163069
sS'http://www.cc.gatech.edu/maj'
p687
F0.00027450409976489384
sS'http://gacomputes.cc.gatech.edu/yardi#portlet-navigation-tree'
p688
F0.0004290789606729221
sS'http://gacomputes.cc.gatech.edu/login_form#portlet-navigation-tree'
p689
F0.000548940684315078
sS'http://www.cc.gatech.edu/phdra'
p690
F0.0002735769350290025
sS'http://www.cc.gatech.edu/~atk'
p691
F0.000315532921896283
sS'mailto:norberto@cc.gatech.edu'
p692
F0.00026969561758637486
sS'http://gacomputes.cc.gatech.edu/sitemap?None&month:int=10&year:int=2014&orig_query=None#documentCont'
p693
F0.0002652679385544622
sS'http://wcc.gatech.edu'
p694
F0.0002860816947189663
sS'http://coweb.cc.gatech.edu/mediaComp-plan'
p695
F0.000891458243066165
sS'http://warehouse.icpa.gatech.edu/BogostBloomberg7-22-07.wmv'
p696
F0.000273027506071963
sS'http://www.cc.gatech.edu/~yanasak'
p697
F0.0002755377503357736
sS'http://www.cc.gatech.edu/chmpr'
p698
F0.0003412958190163069
sS'mailto:gzhang3@cc.gatech.edu'
p699
F0.00027468237941275533
sS'http://gacomputes.cc.gatech.edu/search_form?None&month:int=1&year:int=2015&orig_query=None'
p700
F0.0003051748212793555
sS'https://wiki.cc.gatech.edu/folklore'
p701
F0.0004838238307932749
sS'http://www.cc.gatech.edu/%7Eisbell'
p702
F0.00039510805973622456
sS'http://www.cc.gatech.edu/%7Edmpatra'
p703
F0.0002690648584137492
sS'http://www.cc.gatech.edu/INC'
p704
F0.0003412958190163069
sS'http://c21u.gatech.edu'
p705
F0.000273027506071963
sS'http://www.prism.gatech.edu/~ndavis35'
p706
F0.000292646942251053
sS'http://wiki.cc.gatech.edu/alignmentfree'
p707
F0.0002683336946301467
sS'mailto: arkin@gatech.edu'
p708
F0.0003460356456304604
sS'http://www.cc.gatech.edu/~vanhorn'
p709
F0.00026969561758637486
sS'http://www.cc.gatech.edu/sdmatcercs'
p710
F0.00033923735957135277
sS'http://www.cc.gatech.edu/~dorn'
p711
F0.0003047578936488893
sS'http://comparch.gatech.edu'
p712
F0.0003274478851638448
sS'http://pag.gatech.edu/pubs'
p713
F0.0002734271271689967
sS'http://www.cc.gatech.edu/~ledantec'
p714
F0.00028173289981191864
sS'http://www.cc.gatech.edu/~ogreen3'
p715
F0.0002887134784152764
sS'http://wiki.cc.gatech.edu/ambient'
p716
F0.0003326049319826798
sS'http://www.cc.gatech.edu/~pzhou6'
p717
F0.0002906105653750771
sS'http://www.cc.gatech.edu/travel'
p718
F0.0002838342865392026
sS'http://arc.gatech.edu'
p719
F0.0003649229549290335
sS'http://www.gradadmiss.gatech.edu/programs'
p720
F0.00028121654709704165
sS'http://dev2.cc.gatech.edu/research'
p721
F0.00029368543565683837
sS'http://www.admission.gatech.edu/campus_visits'
p722
F0.00028121654709704165
sS'mailto:photography@cc.gatech.edu'
p723
F0.00028713445888880774
sS'http://www.cc.gatech.edu/%7Eatk'
p724
F0.000725275966695851
sS'http://www.workabroad.gatech.edu/benefits.php'
p725
F0.00028121654709704165
sS'http://gacomputes.cc.gatech.edu/contact-info?None&month:int=10&year:int=2014&orig_query=None#documen'
p726
F0.0002652679385544622
sS'http://www-static.cc.gatech.edu/classes'
p727
F0.00046700298721965005
sS'http://www.cc.gatech.edu/ms-hci'
p728
F0.0003412958190163069
sS'http://www.prism.gatech.edu/~kraveendran3'
p729
F0.0003969097010824581
sS'http://wiki.cc.gatech.edu/aardvark'
p730
F0.0002683336946301467
sS'http://gacomputes.cc.gatech.edu/sitemap?None&month:int=1&year:int=2015&orig_query=None'
p731
F0.00030302119001571713
sS'http://www.cc.gatech.edu/~jpierce'
p732
F0.00028365524280760584
sS'http://www.cc.gatech.edu/sports'
p733
F0.0002838342865392026
sS'https://support.cc.gatech.edu/support-tools'
p734
F0.00028016939241571346
sS'mailto:nick.faust@gtri.gatech.edu'
p735
F0.00026969561758637486
sS'http://www.imtc.gatech.edu/people'
p736
F0.0002690648584137492
sS'http://cc.gatech.edu/news'
p737
F0.0005993588551866381
sS'http://www2.isye.gatech.edu/mailman'
p738
F0.0002906200450507505
sS'http://adam.lcc.gatech.edu/wp-content'
p739
F0.0003009205959619664
sS'http://www.hsi.gatech.edu/healthcaredesign'
p740
F0.00028548755536116657
sS'https://cgi3.cc.gatech.edu/wwws'
p741
F0.00027108037159792765
sS'http://cc.gatech.edu'
p742
F0.00033925042601181326
sS'https://wiki.cc.gatech.edu/cse'
p743
F0.00037543933798819
sS'mailto:mynatt@cc.gatech.edu'
p744
F0.00026969561758637486
sS'mailto:Russ.Clark@gatech.edu'
p745
F0.000271369406034766
sS'http://gacomputes.cc.gatech.edu/search?Creator=bjordin&sort_on=Date&sort_order=reverse&month:int=12&'
p746
F0.0002652679385544622
sS'https://wiki.cc.gatech.edu/c4g'
p747
F0.0003412958190163069
sS'http://wiki.cc.gatech.edu/cpl-internal'
p748
F0.0002683336946301467
sS'http://www.gatech.edu/accountability'
p749
F0.0005039785622949668
sS'https://wiki.cc.gatech.edu/ebd'
p750
F0.00031088466683156906
sS'http://www.cc.gatech.edu/~yyang319'
p751
F0.0002881228989135069
sS'http://www.gvu.gatech.edu/student-researchers-sonification-lab-bring-new-sound-data'
p752
F0.00031212261298017955
sS'http://www.cc.gatech.edu/~tucker'
p753
F0.00036938092140690503
sS'http://www.cc.gatech.edu/~sham'
p754
F0.0002783723162445501
sS'http://comp.social.gatech.edu'
p755
F0.00028129114676212386
sS'http://www.cc.gatech.edu/hccquals'
p756
F0.0003412958190163069
sS'mailto:abby@innovate.gatech.edu'
p757
F0.000273027506071963
sS'http://wiki.cc.gatech.edu/GWNN'
p758
F0.0002683336946301467
sS'http://people.math.gatech.edu/~klounici6'
p759
F0.00027894673344271685
sS'mailto:kacb-students@mailman.cc.gatech.edu'
p760
F0.00028713445888880774
sS'http://www.cc.gatech.edu/exhibition'
p761
F0.00033471558302637975
sS'http://www.cc.gatech.edu/cellbuzz'
p762
F0.0003730637041313771
sS'http://www.cc.gatech.edu/lana'
p763
F0.0003512947663469393
sS'https://wiki.cc.gatech.edu/TINKER'
p764
F0.00028807630269301563
sS'mailto:victor.rogers@comm.gatech.edu'
p765
F0.000273027506071963
sS'http://www.cc.gatech.edu/papers'
p766
F0.0002941712964911241
sS'http://wiki.cc.gatech.edu/cvpr09'
p767
F0.0002683336946301467
sS'http://coweb.cc.gatech.edu/squeakbook'
p768
F0.000371411966019931
sS'http://www.cc.gatech.edu/~arkin'
p769
F0.0002783723162445501
sS'http://wiki.cc.gatech.edu/salud'
p770
F0.0002683336946301467
sS'http://www.math.gatech.edu/~randall'
p771
F0.0005677700764875096
sS'http://triton.cc.gatech.edu:8080/cscl.60'
p772
F0.0002894746179671243
sS'http://www.cc.gatech.edu//www.mediawiki.org/wiki/Localisation#Translation_resource'
p773
F0.00028807630269301563
sS'http://opal.biology.gatech.edu/GeneMark'
p774
F0.00027894673344271685
sS'https://wiki.cc.gatech.edu/ms-hci'
p775
F0.0003412958190163069
sS'mailto:david.smith@cc.gatech.edu'
p776
F0.0002998170580859218
sS'http://www.cc.gatech.edu/~dellaert'
p777
F0.0005395229447796048
sS'http://comp.social.gatech.edu/papers'
p778
F0.0002794739888815248
sS'http://faq.oit.gatech.edu'
p779
F0.00028006563969720273
sS'file://///ccsamba.cc.gatech.edu/npolite3/www-ice/staff.htm'
p780
F0.0007264412297765235
sS'https://wiki.cc.gatech.edu/2010-phds'
p781
F0.0003412958190163069
sS'http://acmelab.gatech.edu/?page_id=2'
p782
F0.000292646942251053
sS'http://www.cc.gatech.edu/%7Elxiong'
p783
F0.00027108037159792765
sS'http://www.cc.gatech.edu/~venkat'
p784
F0.00029581139701574996
sS'http://guzdial.cc.gatech.edu:8080/personal.1'
p785
F0.0002894746179671243
sS'https://wiki.cc.gatech.edu/elba'
p786
F0.0003412958190163069
sS'http://www.cc.gatech.edu/elba'
p787
F0.0003412958190163069
sS'http://www.cc.gatech.edu/collab-managers'
p788
F0.0003412958190163069
sS'http://www.cc.gatech.edu/~wang6'
p789
F0.00036587034826923286
sS'http://minnow.cc.gatech.edu/cs2390sp97'
p790
F0.00029260720814601075
sS'http://www.prism.gatech.edu/~gte783m'
p791
F0.00027108037159792765
sS'http://guzdial.cc.gatech.edu/poo'
p792
F0.0002838342865392026
sS'http://www.deanofstudents.gatech.edu/Honor'
p793
F0.0004006299294449359
sS'https://wiki.cc.gatech.edu/cercs'
p794
F0.0003412958190163069
sS'https://wiki.cc.gatech.edu/hplab'
p795
F0.0003412958190163069
sS'mailto:dva@ece.gatech.edu'
p796
F0.00026969561758637486
sS'mailto:ewz@erlang.cc.gatech.edu'
p797
F0.000271369406034766
sS'mailto:alex.godwin@gatech.edu'
p798
F0.0002697346593853361
sS'https://wiki.cc.gatech.edu/epl'
p799
F0.0003401322354497289
sS'mailto:prabir.mehta@oit.gatech.edu'
p800
F0.00026969561758637486
sS'http://www.lcc.gatech.edu/%7Ebolter'
p801
F0.00026969561758637486
sS'http://www.cc.gatech.edu/eaganj'
p802
F0.0005813876097714367
sS'mailto:theory-students-owner@cc.gatech.edu'
p803
F0.00028713445888880774
sS'http://honor.gatech.edu/dev'
p804
F0.00029241581254696317
sS'mailto:lcs@cc.gatech.edu'
p805
F0.0002847287554248263
sS'http://swiki.cc.gatech.edu:8080/barcelona'
p806
F0.0003222888489008458
sS'http://www.gradadmiss.gatech.edu'
p807
F0.0002882732983886104
sS'http://www.ce.gatech.edu'
p808
F0.00026969561758637486
sS'http://www.newscenter.gatech.edu/hg_legacy'
p809
F0.000273027506071963
sS'http://www.cc.gatech.edu/mmWorkshop'
p810
F0.000519630361352939
sS'http://www.cc.gatech.edu/~axa'
p811
F0.0005724107622309451
sS'mailto:purav@cc.gatech.edu'
p812
F0.0002847287554248263
sS'http://cic.gatech.edu'
p813
F0.000271369406034766
sS'mailto:hpts@cc.gatech.edu'
p814
F0.00027108037159792765
sS'http://www.cc.gatech.edu/~bcooper'
p815
F0.00028398108986966254
sS'http://wiki.cc.gatech.edu/CERCS-infra'
p816
F0.0002683336946301467
sS'https://wiki.cc.gatech.edu/sting'
p817
F0.0003412958190163069
sS'mailto:fabianb@cc.gatech.edu'
p818
F0.0002698833152670308
sS'http://coweb.cc.gatech.edu/mediaComp-teach#DS'
p819
F0.00028562922747717287
sS'https://wiki.cc.gatech.edu/infrastructure'
p820
F0.0003412958190163069
sS'http://www.cc.gatech.edu/~schwan'
p821
F0.0008605619514747357
sS'http://www.cc.gatech.edu/cvpr09'
p822
F0.00031088466683156906
sS'http://www.cc.gatech.edu/~wyhuang'
p823
F0.0002755377503357736
sS'http://www.cc.gatech.edu/~boneill'
p824
F0.000538312964947247
sS'http://www.cc.gatech.edu/living'
p825
F0.0002838342865392026
sS'http://gacomputes.cc.gatech.edu/images-1#documentContent'
p826
F0.00027809881718655676
sS'http://wiki.cc.gatech.edu/glimpses'
p827
F0.0002683336946301467
sS'http://dilab.gatech.edu/C3'
p828
F0.000292646942251053
sS'mailto:ivan.riobo@gatech.edu'
p829
F0.0002697346593853361
sS'http://www.cc.gatech.edu/download.php'
p830
F0.0003072217592554148
sS'http://pag.gatech.edu/home'
p831
F0.0002734271271689967
sS'http://research.cc.gatech.edu/ccg'
p832
F0.0007909388405199417
sS'mailto:trustin@gatech.edu'
p833
F0.0002697346593853361
sS'mailto:alexander.kirlik@isye.gatech.edu'
p834
F0.00026969561758637486
sS'http://jupiter.cc.gatech.edu:8082/navigator.html'
p835
F0.00027108037159792765
sS'http://www.cc.gatech.edu/~melody'
p836
F0.0003414017651946807
sS'https://wiki.cc.gatech.edu/kacb-move'
p837
F0.00031088466683156906
sS'http://egovision12.cc.gatech.edu/submission.htm'
p838
F0.002034337727970041
sS'http://coweb.cc.gatech.edu/midice'
p839
F0.00028562922747717287
sS'http://www.cc.gatech.edu/%7Efeamster'
p840
F0.0003633153664662774
sS'http://www.cc.gatech.edu/%7Eyardi'
p841
F0.00030362409671228803
sS'mailto:lbd@cc.gatech.edu'
p842
F0.00027108037159792765
sS'mailto:robotics-fac@cc.gatech.edu'
p843
F0.00028713445888880774
sS'http://www.cc.gatech.edu/~yuting'
p844
F0.0003714558014131048
sS'http://pride.gatech.edu'
p845
F0.0002834692054638084
sS'http://www.cc.gatech.edu/event'
p846
F0.00038954337043750387
sS'http://www.cc.gatech.edu/admin-a-drupal'
p847
F0.00027412197047255334
sS'http://www.cetl.gatech.edu/services'
p848
F0.00028121654709704165
sS'mailto:ed.price@oip.gatech.edu'
p849
F0.00026969561758637486
sS'http://www.cc.gatech.edu/ConfigureSharing.asp?SID=3353100&Rnd=0.4226633'
p850
F0.0003351953744415918
sS'http://www.cercs.gatech.edu/research.shtml'
p851
F0.0002751888510406943
sS'http://www.oip.gatech.edu/imtcpeop'
p852
F0.00026969561758637486
sS'mailto:conte@gatech.edu'
p853
F0.0002958760458445388
sS'http://www.cc.gatech.edu/~calton'
p854
F0.00041632043443943936
sS'http://guzdial.cc.gatech.edu:8080/personal.134'
p855
F0.0002838342865392026
sS'https://wiki.cc.gatech.edu/cse-curriculum'
p856
F0.0003222888489008458
sS'http://www.cc.gatech.edu/CSSP'
p857
F0.0003412958190163069
sS'http://www.cc.gatech.edu/~wanxia'
p858
F0.0002755377503357736
sS'http://www.prism.gatech.edu'
p859
F0.000292646942251053
sS'http://www.cc.gatech.edu/research.html'
p860
F0.0002813501833792391
sS'http://wiki.cc.gatech.edu/synlab'
p861
F0.0002683336946301467
sS'http://www.cc.gatech.edu/pag'
p862
F0.0003501498509343981
sS'http://wiki.cc.gatech.edu/roboteducation'
p863
F0.0002683336946301467
sS'http://www.honor.gatech.edu/plugins'
p864
F0.00029810136026205933
sS'http://www.cc.gatech.edu/%7eaameek'
p865
F0.00027108037159792765
sS'https://wiki.cc.gatech.edu/roboticshandbook'
p866
F0.0003412958190163069
sS'http://wiki.cc.gatech.edu/TINKER'
p867
F0.0002683336946301467
sS'http://www.cc.gatech.edu/disclaimer.html'
p868
F0.0003600465362432675
sS'http://www.cc.gatech.edu/~pu'
p869
F0.00028398108986966254
sS'http://gacomputes.cc.gatech.edu/sitemap?None&month:int=12&year:int=2014&orig_query=None#portlet-navi'
p870
F0.0002652679385544622
sS'http://www.cc.gatech.edu/~john.stasko'
p871
F0.0003653900335558534
sS'http://www.math.gatech.edu/users'
p872
F0.00030846559053187216
sS'http://wiki.cc.gatech.edu/sml'
p873
F0.0002683336946301467
sS'http://gatech.edu'
p874
F0.0003971988447041275
sS'http://www.cc.gatech.edu/CSE'
p875
F0.0003383781683070153
sS'http://wiki.cc.gatech.edu/LTDesign'
p876
F0.0002683336946301467
sS'mailto:abowd@cc.gatech.edu, brothert@cc.gatech.edu'
p877
F0.00030096608129940856
sS'http://www.cc.gatech.edu/current'
p878
F0.0015359498427455558
sS'http://www.cc.gatech.edu/~rosu'
p879
F0.00028398108986966254
sS'http://abc.cc.gatech.edu:8800/embedded-lab-trac'
p880
F0.0003363353155904419
sS'http://www.cc.gatech.edu/stinger'
p881
F0.0004489147775482447
sS'http://www.gtisc.gatech.edu/securitysummit1007.html'
p882
F0.0002822432808137772
sS'http://www.sic.gatech.edu'
p883
F0.0014806439103811394
sS'http://guzdial.cc.gatech.edu/HorizonsFireDance.MOV'
p884
F0.0002838342865392026
sS'http://people.math.gatech.edu/~chenette'
p885
F0.0003633153664662774
sS'http://www.inta.gatech.edu'
p886
F0.0003375264336999253
sS'http://www.cc.gatech.edu/%7elingliu'
p887
F0.00027108037159792765
sS'http://iswc.gatech.edu'
p888
F0.00026969561758637486
sS'http://www.cc.gatech.edu/~alouis3'
p889
F0.0003074994296131268
sS'http://www.cc.gatech.edu/site'
p890
F0.0008005246387078439
sS'http://www.cc.gatech.edu/~mparker6'
p891
F0.00035573349190530415
sS'http://wiki.cc.gatech.edu/CW2013'
p892
F0.0002683336946301467
sS'http://egl.gatech.edu'
p893
F0.00028121654709704165
sS'http://www.cc.gatech.edu/%7Ejohn.stasko'
p894
F0.00026969561758637486
sS'https://www.cc.gatech.edu/~rehg'
p895
F0.00037473832471788876
sS'http://www.chmsr.gatech.edu/~wmgray'
p896
F0.00026969561758637486
sS'http://www.finaid.gatech.edu'
p897
F0.00043598638072698517
sS'http://www.cc.gatech.edu/academics'
p898
F0.00027569574831049626
sS'http://www.math.gatech.edu'
p899
F0.000273027506071963
sS'http://www.sab.cc.gatech.edu/calendar.php'
p900
F0.00052375267542612
sS'http://www.cc.gatech.edu/main'
p901
F0.0002683336946301467
sS'http://home.cc.gatech.edu/cmgardne'
p902
F0.0003251064379806991
sS'http://www.cc.gatech.edu/allison'
p903
F0.0004136087245657746
sS'http://www.cc.gatech.edu/~steedly'
p904
F0.00026969561758637486
sS'http://www.cc.gatech.edu/~simpkins'
p905
F0.0002965722371259038
sS'mailto:lingliu@cc.gatech.edu'
p906
F0.00028366238031598255
sS'http://www.cc.gatech.edu/TINKER'
p907
F0.00028807630269301563
sS'http://www.cc.gatech.edu/~jhudson'
p908
F0.00033755257745740917
sS'http://www.cc.gatech.edu/~mriley'
p909
F0.00026969561758637486
sS'http://www.digitallounge.gatech.edu/gaming'
p910
F0.0003429549419590926
sS'http://www.gatech.edu/projects'
p911
F0.0002893708631137324
sS'https://taesoo.gtisc.gatech.edu'
p912
F0.00038175800020361675
sS'http://www.energy.gatech.edu'
p913
F0.00031238697079012846
sS'http://www.cc.gatech.edu/DisplaySummary.asp?SID=3353100'
p914
F0.0003351953744415918
sS'mailto:cdshaw@cc.gatech.edu'
p915
F0.00026969561758637486
sS'http://egovision12.cc.gatech.edu/dates.htm'
p916
F0.001529465610003605
sS'http://www.cc.gatech.edu/~mkunda'
p917
F0.0003664707625595327
sS'http://www.ic.gatech.edu/about'
p918
F0.000273027506071963
sS'mailto:ethomaz@gatech.edu'
p919
F0.0002697346593853361
sS'http://pbl.cc.gatech.edu/myswiki'
p920
F0.0003286389386225285
sS'mailto:caleb.southern@gatech.edu'
p921
F0.0002697346593853361
sS'http://www.admission.gatech.edu'
p922
F0.00028121654709704165
sS'http://wiki.cc.gatech.edu'
p923
F0.0002698833152670308
sS'http://www.cc.gatech.edu/~vishal'
p924
F0.00028398108986966254
sS'mailto:rim-seminar@mailman.cc.gatech.edu'
p925
F0.00028713445888880774
sS'www.math.gatech.edu/~tetali/'
p926
F0.0003225003937257298
sS'http://collab.cc.gatech.edu/activecollab'
p927
F0.00027837919440421537
sS'www.cc.gatech.edu/~iulian'
p928
F0.0002697346593853361
sS'http://pag.gatech.edu/prism'
p929
F0.0002734271271689967
sS'http://www.gatech.edu/eas'
p930
F0.00026969561758637486
sS'http://www.ceismc.gatech.edu'
p931
F0.000422041039068912
sS'mailto:alicia%40cc.gatech.edu'
p932
F0.00038175800020361675
sS'http://www.imtc.gatech.edu'
p933
F0.0002755080506298403
sS'http://www.pe.gatech.edu/instructors'
p934
F0.0002783723162445501
sS'http://www.hsi.gatech.edu/hrl'
p935
F0.00033374694869035484
sS'http://www.cc.gatech.edu/~samir'
p936
F0.00026969561758637486
sS'http://gacomputes.cc.gatech.edu/sitemap?None&month:int=12&year:int=2014&orig_query=None'
p937
F0.0004466070971590132
sS'http://www.cc.gatech.edu/howto'
p938
F0.00028016939241571346
sS'http://www.cc.gatech.edu/staff'
p939
F0.00027450409976489384
sS'http://www.cc.gatech.edu/~fli'
p940
F0.000737633334502809
sS'http://www.gvu.gatech.edu/%7Ejarek'
p941
F0.00033346402791866993
sS'http://cc.gatech.edu/~ddewey3'
p942
F0.0002882732983886104
sS'http://swiki.cc.gatech.edu/compfreak'
p943
F0.00040454334757819875
sS'http://swiki.cc.gatech.edu:8080/ectropic'
p944
F0.0003321745987798523
sS'http://www.aco.gatech.edu/events'
p945
F0.00028438232026380697
sS'http://www.cc.gatech.edu/folklore'
p946
F0.0004838238307932749
sS'http://poloclub.gatech.edu/idea2014'
p947
F0.00028027767304898894
sS'http://www.cc.gatech.edu/~daniela'
p948
F0.00028398108986966254
sS'http://collab.cc.gatech.edu/dotproject'
p949
F0.00027837919440421537
sS'http://www-dev.research.cc.gatech.edu'
p950
F0.000278135992085919
sS'http://www.cc.gatech.edu/~robertsd'
p951
F0.0002857285517933851
sS'http://www.cc.gatech.edu/~tilevich'
p952
F0.00027450409976489384
sS'http://gacomputes.cc.gatech.edu/contact-info?None&month:int=12&year:int=2014&orig_query=None#documen'
p953
F0.0002652679385544622
sS'http://www.cc.gatech.edu/women'
p954
F0.00052375267542612
sS'http://www.me.gatech.edu/me'
p955
F0.00026969561758637486
sS'http://www-static.cc.gatech.edu/morale'
p956
F0.000271369406034766
sS'http://www.cc.gatech.edu/lablearning'
p957
F0.0003412958190163069
sS'http://gacomputes.cc.gatech.edu/sitemap?None&month:int=8&year:int=2014&orig_query=None'
p958
F0.0002769755754923359
sS'mailto:kacb-staff-owner@mailman.cc.gatech.edu'
p959
F0.00028713445888880774
sS'https://wiki.cc.gatech.edu/journalism'
p960
F0.0003222888489008458
sS'mailto:peter.mcguire@lcc.gatech.edu'
p961
F0.00026969561758637486
sS'http://undergradresearch.gatech.edu/research-option'
p962
F0.0003250107294192898
sS'http://tinker.cc.gatech.edu/tinkresearch.html'
p963
F0.00028807630269301563
sS'https://wiki.cc.gatech.edu/cruise'
p964
F0.0003412958190163069
sS'http://wiki.cc.gatech.edu/ksi'
p965
F0.0002683336946301467
sS'https://wiki.cc.gatech.edu/CSSP'
p966
F0.0003412958190163069
sS'http://wiki.cc.gatech.edu/CSSP'
p967
F0.0002683336946301467
sS'mailto:bruce.walker@psych.gatech.edu'
p968
F0.00026969561758637486
sS'http://www.cc.gatech.edu/TeaParty'
p969
F0.0008113280732600453
sS'http://www.cc.gatech.edu/%7Ebala'
p970
F0.0002698833152670308
sS'https://wiki.cc.gatech.edu/main'
p971
F0.0004977345135651486
sS'http://www.oit.gatech.edu/software'
p972
F0.000283306740565882
sS'http://www.cc.gatech.edu/~manolios'
p973
F0.0002868790439949632
sS'http://gacomputes.cc.gatech.edu/mail_password_form?None&month:int=1&year:int=2015&orig_query=None'
p974
F0.0003026015497051213
sS'http://www.chmsr.gatech.edu/~aquinn'
p975
F0.00026969561758637486
sS'https://passport.gatech.edu/?action=check-account-status'
p976
F0.0005039785622949668
sS'http://www.cc.gatech.edu/%7Evirendra'
p977
F0.00037215993639431083
sS'http://hg.gatech.edu/hrl'
p978
F0.000273027506071963
sS'http://www.cc.gatech.edu/~aranyak'
p979
F0.0003225003937257298
sS'mailto:ndavis35@gatech.edu'
p980
F0.0002697346593853361
sS'https://wiki.cc.gatech.edu/comparch'
p981
F0.0003412958190163069
sS'mailto:melody@cc.gatech.edu'
p982
F0.00032330623890963994
sS'http://www.psychology.gatech.edu/KanferAckerman'
p983
F0.00026969561758637486
sS'http://www.sic.gatech.edu/people'
p984
F0.0003687839162559682
sS'http://www.cse.gatech.edu/future'
p985
F0.00030297583666869616
sS'http://www.cc.gatech.edu/~arya'
p986
F0.0003003691569851908
sS'https://wiki.cc.gatech.edu/graphs'
p987
F0.0003412958190163069
sS'http://www.cc.gatech.edu/~qinyi'
p988
F0.00027108037159792765
sS'http://www3-int.cc.gatech.edu/cns'
p989
F0.00031088466683156906
sS'mailto:kacb-move@cc.gatech.edu'
p990
F0.00028713445888880774
sS'http://www.iac.gatech.edu/dupree'
p991
F0.00026969561758637486
sS'http://www.space.gatech.edu'
p992
F0.00030084260116600435
sS'http://coweb.cc.gatech.edu/mmworkshop'
p993
F0.0002894746179671243
sS'http://www.cc.gatech.edu/morale'
p994
F0.0004806129717392547
sS'http://www.cc.gatech.edu/~athomaz'
p995
F0.0011947301424118535
sS'http://www.cc.gatech.edu/brainlab'
p996
F0.0023343283907630774
sS'http://www.cc.gatech.edu/~pamh'
p997
F0.00026969561758637486
sS'https://wiki.cc.gatech.edu/ihpcl'
p998
F0.0003032818787853846
sS'http://swiki.cc.gatech.edu:8080/icecamp'
p999
F0.00037210740536902453
sS'https://passport-prod.gatech.edu/activation'
p1000
F0.0005039785622949668
sS'http://www.cc.gatech.edu/schemesAni'
p1001
F0.000602300439701044
sS'mailto:phillip.ackerman@psych.gatech.edu'
p1002
F0.00026969561758637486
sS'mailto:jparekh@cc.gatech.edu'
p1003
F0.0002847287554248263
sS'http://www.cc.gatech.edu/~manus'
p1004
F0.0002865440872662862
sS'http://gacomputes.cc.gatech.edu/author?None&month:int=10&year:int=2014&orig_query=None#documentConte'
p1005
F0.0002652679385544622
sS'http://www.cc.gatech.edu/~Chris.Atkeson'
p1006
F0.0007290101445415293
sS'http://cc.gatech.edu/content'
p1007
F0.00030362409671228803
sS'http://www.cc.gatech.edu/iic'
p1008
F0.0002865440872662862
sS'https://wiki.cc.gatech.edu/finishing'
p1009
F0.0003412958190163069
sS'mailto:miranda.parker@gatech.edu'
p1010
F0.0002697346593853361
sS'http://researchintegrity.gatech.edu/about-irb'
p1011
F0.00031088466683156906
sS'http://bobble.gtisc.gatech.edu'
p1012
F0.00034819310797813707
sS'mailto:hwajung@gatech.edu'
p1013
F0.0002697346593853361
sS'http://www.gatech.edu/spp'
p1014
F0.00026969561758637486
sS'http://www.cc.gatech.edu/~wtang'
p1015
F0.00027108037159792765
sS'http://www.cc.gatech.edu/~khramez'
p1016
F0.00026969561758637486
sS'http://www.cc.gatech.edu/~manisha'
p1017
F0.00030625837390647133
sS'http://www.internationalplan.gatech.edu'
p1018
F0.00028121654709704165
sS'http://gacomputes.cc.gatech.edu/contact-info#documentContent'
p1019
F0.0004290789606729221
sS'http://www.scs.gatech.edu/people'
p1020
F0.0004654774545596748
sS'http://coweb.cc.gatech.edu/guzdial'
p1021
F0.0003986982472525916
sS'http://www.cc.gatech.edu/~randy'
p1022
F0.0002783723162445501
sS'https://wiki.cc.gatech.edu/c4gblis'
p1023
F0.0003412958190163069
sS'http://cercs.gatech.edu'
p1024
F0.0003981099985845215
sS'MAILTO:abowd@cc.gatech.edu'
p1025
F0.0002809802857811607
sS'https://www.cc.gatech.edu/program'
p1026
F0.00028121654709704165
sS'http://www.cercs.gatech.edu/index.shtml'
p1027
F0.0002751888510406943
sS'https://www.gvu.gatech.edu'
p1028
F0.00042694102423963923
sS'http://www.cc.gatech.edu/%7Eturk'
p1029
F0.0003419695184469189
sS'http://trac.research.cc.gatech.edu'
p1030
F0.00027837919440421537
sS'http://www.cc.gatech.edu/lecture-series'
p1031
F0.00031615827379363146
sS'http://www.arch.gatech.edu/crt'
p1032
F0.00026969561758637486
sS'https://wiki.cc.gatech.edu/aardvark'
p1033
F0.0003412958190163069
sS'http://www.cc.gatech.edu/~bolot'
p1034
F0.0003091855726808019
sS'http://www.arch.gatech.edu'
p1035
F0.0002899152343930792
sS'http://www.cc.gatech.edu/~kaess'
p1036
F0.0003460356456304604
sS'http://www.cc.gatech.edu/~ada'
p1037
F0.0006029009500441261
sS'http://www.cc.gatech.edu/%7Eshikano'
p1038
F0.000284027494085921
sS'http://www.cc.gatech.edu/walllab'
p1039
F0.0003412958190163069
sS'http://uroc.cc.gatech.edu'
p1040
F0.0003962767634645107
sS'mailto:badre@cc.gatech.edu'
p1041
F0.00026969561758637486
sS'mailto:alumni-owner@cc.gatech.edu'
p1042
F0.00028713445888880774
sS'http://intranet.cc.gatech.edu'
p1043
F0.0016857419890872797
sS'http://www.rnoc.gatech.edu'
p1044
F0.000271369406034766
sS'http://www.cc.gatech.edu/sysHackfest'
p1045
F0.0002735769350290025
sS'http://www.registrar.gatech.edu/students'
p1046
F0.000340851068047356
sS'mailto:arch-beer-owner@cc.gatech.edu'
p1047
F0.00030577572772975205
sS'http://www.cc.gatech.edu/~samantik'
p1048
F0.0002698833152670308
sS'http://www.cc.gatech.edu/campice'
p1049
F0.00037210740536902453
sS'http://www.news-info.gatech.edu/news_releases'
p1050
F0.00031251746116639
sS'http://wiki.cc.gatech.edu/comparch'
p1051
F0.0002683336946301467
sS'http://gtresearchnews.gatech.edu/fibrin-assembly'
p1052
F0.000273027506071963
sS'http://www.cc.gatech.edu/is'
p1053
F0.0003644742152751801
sS'http//www.cc.gatech.edu'
p1054
F0.0002751031774828975
sS'http://sti.cc.gatech.edu'
p1055
F0.000421813707000887
sS'http://www.cc.gatech.edu/graphs'
p1056
F0.00047345939367395
sS'http://coweb.cc.gatech.edu/mediaComp-teach#Java"'
p1057
F0.00028562922747717287
sS'http://www.cc.gatech.edu/si-machines'
p1058
F0.0002906105653750771
sS'https://wiki.cc.gatech.edu/IABExascale'
p1059
F0.0003412958190163069
sS'http://www.cc.gatech.edu/~junxiao'
p1060
F0.00026969561758637486
sS'mailto:maribeth.gandy@imtc.gatech.edu'
p1061
F0.00026969561758637486
sS'file://///ccsamba.cc.gatech.edu/npolite3/www-ice/contact.htm'
p1062
F0.00027444441244828764
sS'http://gameworlds.gatech.edu'
p1063
F0.000273027506071963
sS'mailto:mpalekar@cc.gatech.edu'
p1064
F0.0002847287554248263
sS'http://pag.gatech.edu/mode'
p1065
F0.0002734271271689967
sS'http://www.admission.gatech.edu/images'
p1066
F0.00038175800020361675
sS'http://www-static.cc.gatech.edu/edutech'
p1067
F0.0002783723162445501
sS'http://guzdial.cc.gatech.edu/LavaTube.MOV'
p1068
F0.0002838342865392026
sS'http://www.development.gatech.edu'
p1069
F0.0002900842845632868
sS'http://www.prism.gatech.edu/~gtg985z'
p1070
F0.00034600886640202556
sS'http://minnow.cc.gatech.edu/squeakdoc.1'
p1071
F0.00027108037159792765
sS'http://www.cc.gatech.edu/news?page=3'
p1072
F0.000338568402263715
sS'http://dcom.arch.gatech.edu/wiki'
p1073
F0.00029659335565850964
sS'http://gacomputes.cc.gatech.edu/search_form?None&month:int=12&year:int=2014&orig_query=None#portlet-'
p1074
F0.0002652679385544622
sS'mailto:tucker@cc.gatech.edu'
p1075
F0.00037435354580632414
sS'http://disl.cc.gatech.edu/Apoidea'
p1076
F0.0002688699463692898
sS'http://www.cc.gatech.edu/~mhunter'
p1077
F0.000288671811643115
sS'http://www-static.cc.gatech.edu'
p1078
F0.0002688699463692898
sS'http://www.coa.gatech.edu/coa'
p1079
F0.000283306740565882
sS'http://www.ip3.gatech.edu'
p1080
F0.000273027506071963
sS'http://robotics.gatech.edu/research'
p1081
F0.00030084260116600435
sS'http://www-static.cc.gatech.edu/~pesti'
p1082
F0.0002688699463692898
sS'http://gtresearchnews.gatech.edu/reshor'
p1083
F0.0003664962588693833
sS'mailto:guerra@cc.gatech.edu'
p1084
F0.0005018844083759629
sS'mailto:kalyan@cc.gatech.edu?subject=Redirection'
p1085
F0.0002755377503357736
sS'http://www.cc.gatech.edu/Computing.html'
p1086
F0.00028163921781607744
sS'http://www.cc.gatech.edu/~ndantam3'
p1087
F0.0002906105653750771
sS'http://www.cc.gatech.edu/CERCS-infra'
p1088
F0.0003412958190163069
sS'http://www.cc.gatech.edu/~yannis'
p1089
F0.0002868790439949632
sS'mailto:renata@cc.gatech.edu'
p1090
F0.0003351953744415918
sS'http://www.cc.gatech.edu/~ckarande'
p1091
F0.0002887134784152764
sS'http://www.cc.gatech.edu/~feamster'
p1092
F0.0004693014143025527
sS'http://home.cc.gatech.edu/csed-class'
p1093
F0.0002899227318933653
sS'mailto:james.crouch@gatech.edu'
p1094
F0.0002697346593853361
sS'http://www.cc.gatech.edu/~kristin'
p1095
F0.0002900569065090855
sS'http://users.ece.gatech.edu/~rnathuji'
p1096
F0.00028398108986966254
sS'http://www.cc.gatech.edu/~qhe'
p1097
F0.00028398108986966254
sS'http://www.id.gatech.edu'
p1098
F0.00028548755536116657
sS'http://www.cc.gatech.edu/graphics'
p1099
F0.0007784833497768624
sS'http://www.isye.gatech.edu/chmsr'
p1100
F0.00026969561758637486
sS'mailto:bobbyb@cc.gatech.edu'
p1101
F0.00026969561758637486
sS'http://www.cc.gatech.edu/index.php'
p1102
F0.0003072217592554148
sS'http://guzdial.cc.gatech.edu/barefoot-tree.MOV'
p1103
F0.0002838342865392026
sS'mailto:uroc-announce-owner@mailman.cc.gatech.edu'
p1104
F0.00028713445888880774
sS'http://dilab.gatech.edu/emt-systems-thinking'
p1105
F0.00027832946843326154
sS'http://people.math.gatech.edu/~randall'
p1106
F0.0003420060254117645
sS'http://hso.cc.gatech.edu/S2HPlay'
p1107
F0.000288385047903782
sS'http://wiki.cc.gatech.edu/chmpr'
p1108
F0.0002683336946301467
sS'http://www.cc.gatech.edu/~zkhan'
p1109
F0.00026969561758637486
sS'http://www.cc.gatech.edu/~asmi1108'
p1110
F0.0002755377503357736
sS'mailto:stewart@cc.gatech.edu'
p1111
F0.00026969561758637486
sS'https://wiki.cc.gatech.edu/hpcprojs'
p1112
F0.0005007079746610238
sS'http://www.cc.gatech.edu/phdvisit-cs'
p1113
F0.0002735769350290025
sS'http://gacomputes.cc.gatech.edu/author?None&month:int=10&year:int=2014&orig_query=None'
p1114
F0.00033557595451423904
sS'https://wiki.cc.gatech.edu/lablearning'
p1115
F0.0003412958190163069
sS'http://www.cercs.gatech.edu/tech-reports'
p1116
F0.0002892186686115558
sS'http://www.cc.gatech.edu/~saswat'
p1117
F0.00027450409976489384
sS'http://www.cc.gatech.edu/finishing'
p1118
F0.0003412958190163069
sS'http://cm.lmc.gatech.edu'
p1119
F0.00028121654709704165
sS'http://www.cc.gatech.edu/eilab'
p1120
F0.0005364103636358972
sS'http://www.gtisc.gatech.edu'
p1121
F0.0007301239043761738
sS'https://research.cc.gatech.edu/keeneland'
p1122
F0.00027412197047255334
sS'http://www.cc.gatech.edu/elc'
p1123
F0.00047329027734457186
sS'http://www.cc.gatech.edu/lab'
p1124
F0.0002697346593853361
sS'http://www.cc.gatech.edu/IABExascale'
p1125
F0.0003412958190163069
sS'http://www.cc.gatech.edu/firefly'
p1126
F0.0003412958190163069
sS'www.arch.gatech.edu/crt/expert.htm#Computer'
p1127
F0.00026969561758637486
sS'http://www.cc.gatech.edu/~lebanon'
p1128
F0.00038344478970211835
sS'http://ww.cc.gatech.edu'
p1129
F0.000273027506071963
sS'http://www.cc.gatech.edu/~hutch'
p1130
F0.00026969561758637486
sS'http://www.cc.gatech.edu/~yxiao32'
p1131
F0.000288385047903782
sS'http://www.cc.gatech.edu/~jriedy'
p1132
F0.0003298555805806896
sS'mailto:bstreich%40cc.gatech.edu'
p1133
F0.000273027506071963
sS'http://jigsaw.w3.org/css-validator'
p1134
F0.00034871751750885745
sS'mailto:pyin@cc.gatech.edu'
p1135
F0.0003816471892231047
sS'http://info.t-square.gatech.edu'
p1136
F0.0002683336946301467
sS'http://wiki.cc.gatech.edu/crg'
p1137
F0.0002683336946301467
sS'http://www.cc.gatech.edu/~echow'
p1138
F0.0004961142055512725
sS'http://home.cc.gatech.edu/ubicomp'
p1139
F0.0003243646031679804
sS'http://www-static.cc.gatech.edu/~sweat'
p1140
F0.0002783723162445501
sS'https://wiki.cc.gatech.edu/CERCSPoster'
p1141
F0.0003412958190163069
sS'mailto:kristen.bailey@comm.gatech.edu'
p1142
F0.000273027506071963
sS'mailto:ecollums@cc.gatech.edu'
p1143
F0.000273027506071963
sS'http://www.cc.gatech.edu/~idoud'
p1144
F0.0002698833152670308
sS'http://www.cc.gatech.edu/jobs'
p1145
F0.00030084260116600435
sS'http://wiki.cc.gatech.edu/incomingphd'
p1146
F0.0002683336946301467
sS'http://www.cc.gatech.edu/computing'
p1147
F0.0010148990414182847
sS'http://www.cc.gatech.edu/~navin'
p1148
F0.000288385047903782
sS'http://gacomputes.cc.gatech.edu/news#documentContent'
p1149
F0.0004252705461957836
sS'http://www.cc.gatech.edu/rss.xml'
p1150
F0.0002900842845632868
sS'http://www.cc.gatech.edu/keeneland'
p1151
F0.000323518857523394
sS'http://www.cc.gatech.edu/cellbuzz-admin'
p1152
F0.0003412958190163069
sS'http://www.cc.gatech.edu/~sgriffith7'
p1153
F0.0002906105653750771
sS'http://www.cc.gatech.edu/%7Ehodges'
p1154
F0.00026969561758637486
sS'http://users.ece.gatech.edu/sudha'
p1155
F0.000273027506071963
sS'https://research.cc.gatech.edu'
p1156
F0.00030495213704102685
sS'http://www.cc.gatech.edu/%7Enanhua'
p1157
F0.00033084479703184174
sS'http://www.ae.gatech.edu'
p1158
F0.00026969561758637486
sS'http://wiki.cc.gatech.edu/CERCSPoster'
p1159
F0.0002683336946301467
sS'http://www-static.cc.gatech.edu/computing'
p1160
F0.00028772845854070097
sS'mailto:kdesportes@gatech.edu'
p1161
F0.0002697346593853361
sS'http://www.cc.gatech.edu/dane'
p1162
F0.00034037271617563244
sS'http://pag-www.gtisc.gatech.edu/courses'
p1163
F0.0002734271271689967
sS'http://www.cc.gatech.edu/teaching'
p1164
F0.00028615793539860985
sS'http://www.cc.gatech.edu/~mihail'
p1165
F0.0003089157747058379
sS'http://www.lcc.gatech.edu/%7Eknoespel'
p1166
F0.00026969561758637486
sS'http://www.cc.gatech.edu/alurulab'
p1167
F0.0004982716144301893
sS'http://www.cc.gatech.edu/~omojokun'
p1168
F0.0002965722371259038
sS'http://www.games.gatech.edu'
p1169
F0.000273027506071963
sS' http://www.cc.gatech.edu/~yardi'
p1170
F0.00028173289981191864
sS'http://www.cbid.gatech.edu/index.html'
p1171
F0.00027832946843326154
sS'http://users.ece.gatech.edu/%7Esudha'
p1172
F0.0002698833152670308
sS'http://www.cc.gatech.edu/webscience'
p1173
F0.0003412958190163069
sS'http://cc.gatech.edu/features'
p1174
F0.00030362409671228803
sS'http://www.cc.gatech.edu/%7Ecpawgi3'
p1175
F0.00028231046587004146
sS'http://www.cercs.gatech.edu/cercs-ent'
p1176
F0.0002946944569465698
sS'mailto:palaver@cc.gatech.edu'
p1177
F0.00029621384145858194
sS'http://www.cc.gatech.edu/~ashwin'
p1178
F0.0002783723162445501
sS'http://www.star.cc.gatech.edu'
p1179
F0.00040190691844380847
sS'https://wiki.cc.gatech.edu/ntg'
p1180
F0.00034420559903868426
sS'http://gatech.edu/directories'
p1181
F0.00035538883686511285
sS'http://gacomputes.cc.gatech.edu/mail_password_form?None&month:int=12&year:int=2014&orig_query=None'
p1182
F0.0004357458186413294
sS'http://wiki.cc.gatech.edu/can-itab'
p1183
F0.0002683336946301467
sS'http://www.cc.gatech.edu/iamgtcomputing'
p1184
F0.000599358855186638
sS'http://wiki.cc.gatech.edu/pag'
p1185
F0.0002683336946301467
sS'http://www.cc.gatech.edu/~zhou'
p1186
F0.00027569574831049626
sS'http://www.freshmanexperience.gatech.edu'
p1187
F0.0002834692054638084
sS'https://wiki.cc.gatech.edu/cvpr09'
p1188
F0.00031088466683156906
sS'http://www-static.cc.gatech.edu/elc'
p1189
F0.00030397340897608273
sS'http://www-static.cc.gatech.edu/~lingliu'
p1190
F0.00028366238031598255
sS'http://www.cc.gatech.edu/csed'
p1191
F0.00037631291063531413
sS'https://wiki.cc.gatech.edu/ambient'
p1192
F0.00031238697079012846
sS'http://www.admission.gatech.edu/degrees'
p1193
F0.00028121654709704165
sS'http://gacomputes.cc.gatech.edu/front-page#documentContent'
p1194
F0.0002969166867728885
sS'http://www.cc.gatech.edu/~abanerje'
p1195
F0.00028438232026380697
sS'mailto:jtoon@gatech.edu'
p1196
F0.000273027506071963
sS'https://wiki.cc.gatech.edu/gtisc'
p1197
F0.0003412958190163069
sS'http://home.cc.gatech.edu/dil'
p1198
F0.00043026215856304496
sS'http://www.cc.gatech.edu/mediaComp-plan'
p1199
F0.00037698805046555646
sS'https://wiki.cc.gatech.edu/cpl'
p1200
F0.0003412958190163069
sS'mailto:cs7260-course@mailman.cc.gatech.edu'
p1201
F0.00028713445888880774
sS'http://my.gatech.edu'
p1202
F0.000271369406034766
sS'http://home.cc.gatech.edu/boneill'
p1203
F0.0002857285517933851
sS'http://guzdial.cc.gatech.edu/papers'
p1204
F0.00037404345391368855
sS'http://gacomputes.cc.gatech.edu/sitemap?None&month:int=9&year:int=2014&orig_query=None'
p1205
F0.0003030211900157172
sS'http://www.cc.gatech.edu/%7Ennaik'
p1206
F0.0002698833152670308
sS'http://www.gtcmt.gatech.edu/research-projects'
p1207
F0.000273027506071963
sS'http://support.cc.gatech.edu/facilities'
p1208
F0.000321621445511939
sS'http://www.cc.gatech.edu/~kalyan'
p1209
F0.0002755377503357736
sS'https://wiki.cc.gatech.edu/webscience'
p1210
F0.0003412958190163069
sS'http://disl.cc.gatech.edu/courses'
p1211
F0.0002937087563280535
sS'http://www.cc.gatech.edu/jlk'
p1212
F0.0003144073195755967
sS'http://www.cc.gatech.edu/~dkuang3'
p1213
F0.0003095090869417584
sS'http://www.cc.gatech.edu/boneill'
p1214
F0.0003867025735823503
sS'http://www.cc.gatech.edu/journalism'
p1215
F0.0003222888489008458
sS'mailto:jason.riedy@cc.gatech.edu'
p1216
F0.0002933056630297876
sS'http://sqltutor.cc.gatech.edu'
p1217
F0.0002734271271689967
sS'http://keeneland.gatech.edu'
p1218
F0.0005283640538182496
sS'http://www.cc.gatech.edu/~stasko'
p1219
F0.0003726034510838308
sS'http://www.oie.gatech.edu'
p1220
F0.00028121654709704165
sS'mailto:khanipour@gatech.edu'
p1221
F0.0002697346593853361
sS'http://www2.clustrmaps.com/counter'
p1222
F0.00034301538791018814
sS'http://www.scs.gatech.edu/contact'
p1223
F0.00032387294536138483
sS'http://web.archive.org/web'
p1224
F0.00034600886640202556
sS'http://www.cc.gatech.edu/~mikeb'
p1225
F0.00030148942559386993
sS'http://www.cc.gatech.edu/cruise'
p1226
F0.0003412958190163069
sS'http://pbl.cc.gatech.edu:8080/myswiki.1'
p1227
F0.00028964671958266804
sS'http://www.cc.gatech.edu/%7Easb'
p1228
F0.00026969561758637486
sS'http://www.cc.gatech.edu/~vishakha'
p1229
F0.00028398108986966254
sS'http://www.cc.gatech.edu/~syazdanb'
p1230
F0.0004003510861991313
sS'http://www.cc.gatech.edu/~ychew3'
p1231
F0.0002697346593853361
sS'http://www.cc.gatech.edu/borg'
p1232
F0.00027412197047255334
sS'http://wiki.cc.gatech.edu/graphics'
p1233
F0.0002683336946301467
sS'http://robotics.gatech.edu/leadership'
p1234
F0.000273027506071963
sS'http://www.cc.gatech.edu/act-lab'
p1235
F0.0003817697764923258
sS'http://wiki.cc.gatech.edu/dil'
p1236
F0.0002683336946301467
sS'http://www.iai.gatech.edu/projects'
p1237
F0.00028365524280760584
sS'http://www.cc.gatech.edu/~jscholz6'
p1238
F0.0004087807801211799
sS'http://www.cs.gatech.edu'
p1239
F0.0003277186322297798
sS'http://home.cc.gatech.edu/csed'
p1240
F0.0003821253436787796
sS'http://gacomputes.cc.gatech.edu/georgia-tech-announces-project-georgia-computes'
p1241
F0.0032907028415629608
sS'http://swiki.cc.gatech.edu:8080/ahome'
p1242
F0.00026969561758637486
sS'http://www.cc.gatech.edu/ExportResults.asp?F=1&SID=3353100&U='
p1243
F0.0003351953744415918
sS'http://www.cc.gatech.edu/%7Etongqqiu'
p1244
F0.00033084479703184174
sS'http://research.cc.gatech.edu/systems'
p1245
F0.00028298684927318253
sS'http://www.cc.gatech.edu/~sooraj'
p1246
F0.0002965722371259038
sS'http://www.psp.gatech.edu'
p1247
F0.00028121654709704165
sS'http://www.cc.gatech.edu/~weihan'
p1248
F0.00027108037159792765
sS'http://www.cc.gatech.edu/~jeisenst'
p1249
F0.0005369555762525806
sS'http://www.cc.gatech.edu/user'
p1250
F0.00032974898776668067
sS'http://www.cc.gatech.edu/~kamesh'
p1251
F0.00030625837390647133
sS'http://cpl.cc.gatech.edu/projects'
p1252
F0.0005315649859925535
sS'http://www.cc.gatech.edu/%7Erocky'
p1253
F0.00028231046587004146
sS'http://www.gatech.edu/research'
p1254
F0.00027444441244828764
sS'http://www.ic.gatech.edu/people'
p1255
F0.0003663875722251008
sS'https://wiki.cc.gatech.edu/nlp-reading'
p1256
F0.0003412958190163069
sS'http://www.cc.gatech.edu/gradbots'
p1257
F0.0004919813753309287
sS'http://idh.gatech.edu'
p1258
F0.0002794739888815248
sS'https://wiki.cc.gatech.edu/aquarium'
p1259
F0.0003412958190163069
sS'http://www.cc.gatech.edu/~hhong31'
p1260
F0.0002697346593853361
sS'http://www.dlpe.gatech.edu'
p1261
F0.00028121654709704165
sS'http://wiki.cc.gatech.edu/lablearning'
p1262
F0.0002683336946301467
sS'http://gacomputes.cc.gatech.edu/author?None&month:int=12&year:int=2014&orig_query=None'
p1263
F0.00033557595451423904
sS'http://guzdial.cc.gatech.edu/CatHula.MOV'
p1264
F0.0002838342865392026
sS'mailto:btomlin@gatech.edu'
p1265
F0.0002697346593853361
sS'http://www.cc.gatech.edu/~hyesoon'
p1266
F0.0003673570199137834
sS'http://www.cc.gatech.edu/sparc'
p1267
F0.000423776806532352
sS'http://chi2012.gatech.edu'
p1268
F0.000273027506071963
sS'https://wiki.cc.gatech.edu/IFER'
p1269
F0.0003412958190163069
sS'http://gacomputes.cc.gatech.edu/news#portlet-navigation-tree'
p1270
F0.0004252705461957836
sS'\nhttp://www.cc.gatech.edu/projects'
p1271
F0.0002688699463692898
sS'http://swiki.cc.gatech.edu:8080/srforum'
p1272
F0.00028060556724519766
sS'http://www.cc.gatech.edu/filter'
p1273
F0.0003249024595047766
sS'http://www.cc.gatech.edu/ecl'
p1274
F0.0003601208029925214
sS'https://wiki.cc.gatech.edu/roboteducation'
p1275
F0.0003412958190163069
sS'http://www.cc.gatech.edu/~riedl'
p1276
F0.000821500588723021
sS'http://www.cc.gatech.edu/lbd'
p1277
F0.0003412958190163069
sS'http://gacomputes.cc.gatech.edu/mail_password_form?None&month:int=2&year:int=2015&orig_query=None'
p1278
F0.00027695936211650563
sS'http://www.cc.gatech.edu/synlab'
p1279
F0.0003412958190163069
sS'http://herring.cc.gatech.edu:8080/2cool'
p1280
F0.0002838342865392026
sS'http://cyberbuzz.gatech.edu/calendar'
p1281
F0.00026969561758637486
sS'http://www-static.cc.gatech.edu/~erika'
p1282
F0.00028173289981191864
sS'https://wiki.cc.gatech.edu/remoterepair'
p1283
F0.0003412958190163069
sS'http://www.cc.gatech.edu/news?page=2'
p1284
F0.00033986006807688423
sS'http://gacomputes.cc.gatech.edu/search_form?None&month:int=10&year:int=2014&orig_query=None#document'
p1285
F0.0002652679385544622
sS'http://www.cc.gatech.edu/~corvarx'
p1286
F0.0002698833152670308
sS'http://www.cc.gatech.edu/news?page=1'
p1287
F0.00033856840226371504
sS'http://www.cc.gatech.edu/news?page=4'
p1288
F0.00033856840226371504
sS'http://www.cc.gatech.edu/news?page=5'
p1289
F0.0003385684022637151
sS'http://www.cc.gatech.edu/aifun'
p1290
F0.00030977462788005754
sS'mailto:wendy.newstetter@cc.gatech.edu'
p1291
F0.00026969561758637486
sS'http://wiki.cc.gatech.edu/walllab'
p1292
F0.0002683336946301467
sS'http://home.cc.gatech.edu/autism'
p1293
F0.00030020639438598277
sS'http://www.prism.gatech.edu/~cstewart8'
p1294
F0.0002903216299223185
sS'mailto:riley@cc.gatech.edu'
p1295
F0.0002755377503357736
sS'http://www.cc.gatech.edu/~loh'
p1296
F0.0002698833152670308
sS'http://dilab.gatech.edu/vita-visual-thinking'
p1297
F0.00027832946843326154
sS'http://www.profpractice.gatech.edu'
p1298
F0.00028121654709704165
sS'http://www.cc.gatech.edu/~abhi'
p1299
F0.00026969561758637486
sS'http://www.cc.gatech.edu/web'
p1300
F0.0005593754763275113
sS'http://psychology.gatech.edu'
p1301
F0.00026969561758637486
sS'http://gacomputes.cc.gatech.edu/search_rss?Creator=yardi&sort_on=Date&sort_order=reverse'
p1302
F0.00027723922165920226
sS'mailto:mudhakar[AT]cc.gatech.edu'
p1303
F0.00027108037159792765
sS'mailto:mark.guzdial@cc.gatech.edu'
p1304
F0.00026969561758637486
sS'mailto:gte793s@prism.gatech.edu'
p1305
F0.0002688699463692898
sS'https://wiki.cc.gatech.edu/brainlab'
p1306
F0.0003412958190163069
sS'mailto:linda.wills@ee.gatech.edu'
p1307
F0.000284027494085921
sS'http://www.cc.gatech.edu/awl'
p1308
F0.0003412958190163069
sS'https://mailman.cc.gatech.edu/mailman'
p1309
F0.0009261114446861315
sS'http://www.cc.gatech.edu/kgblog'
p1310
F0.00027412197047255334
sS'http://gacomputes.cc.gatech.edu/sitemap?None&month:int=11&year:int=2014&orig_query=None'
p1311
F0.00034077444147697207
sS'http://swiki.cc.gatech.edu:8080/cs7450'
p1312
F0.0002811035852983246
sS'http://www.cc.gatech.edu/fce'
p1313
F0.0005459715922416246
sS'http://www.lcc.gatech.edu/%7Estrain'
p1314
F0.00026969561758637486
sS'http://www.gatech.edu/accessibility'
p1315
F0.0005039785622949668
sS'http://www.lcc.gatech.edu/~strain'
p1316
F0.00026969561758637486
sS'http://www.cc.gatech.edu/ectropic'
p1317
F0.000572284164245717
sS'http://lmc.gatech.edu/~bmagerko6'
p1318
F0.0002857285517933851
sS'ftp://ftp.cc.gatech.edu'
p1319
F0.0002841916274476808
sS'http://careers.gatech.edu/career-paths'
p1320
F0.0002751031774828975
sS'http://www.prism.gatech.edu/~gt5257d'
p1321
F0.00026969561758637486
sS'http://www.3d.gatech.edu'
p1322
F0.0002698833152670308
sS'http://www.hpc.gatech.edu'
p1323
F0.000318501781665663
sS'mailto:ashwin@cc.gatech.edu'
p1324
F0.0003009205959619664
sS'http://people.math.gatech.edu/~dmargalit7'
p1325
F0.0002766970153064052
sS'http://www.cc.gatech.edu/index.shtml'
p1326
F0.0002751888510406943
sS'http://www.cc.gatech.edu/%7Eblair'
p1327
F0.00026969561758637486
sS'http://gacomputes.cc.gatech.edu/search_form'
p1328
F0.0035743755873235755
sS'https://research.cc.gatech.edu/cloudatcercs'
p1329
F0.00034293583051303795
sS'https://wiki.cc.gatech.edu/aco-threads'
p1330
F0.0003412958190163069
sS'http://www.cc.gatech.edu/~vernard'
p1331
F0.00028398108986966254
sS'http://wiki.cc.gatech.edu/robotics'
p1332
F0.0003407411999332873
sS'http://www.cc.gatech.edu/%7Edellaert'
p1333
F0.00026969561758637486
sS'http://www.cc.gatech.edu/~zou'
p1334
F0.00026969561758637486
sS'http://www.cc.gatech.edu/courtnext'
p1335
F0.0002735769350290025
sS'http://www.cc.gatech.edu/salud'
p1336
F0.0003412958190163069
sS'http://www.cc.gatech.edu/~guzdial'
p1337
F0.0003478725730241542
sS'http://wiki.cc.gatech.edu/nlp-reading'
p1338
F0.0002683336946301467
sS'http://www.cc.gatech.edu/%7Ethad'
p1339
F0.000273027506071963
sS'http://www.scs.gatech.edu/content'
p1340
F0.000271714421364024
sS'http://sonify.psych.gatech.edu/~walkerb'
p1341
F0.00032701423294468626
sS'http://www.gvu.gatech.edu/research'
p1342
F0.0003047578936488893
sS'http://www.cc.gatech.edu/~mjang9'
p1343
F0.00028398108986966254
sS'http://www.cc.gatech.edu/uroc'
p1344
F0.00031088466683156906
sS'mailto:abowd.gatech.edu'
p1345
F0.00028615793539860985
sS'mailto:ron.arkin@cc.gatech.edu'
p1346
F0.00026969561758637486
sS'http://www.cc.gatech.edu/~yuanchen'
p1347
F0.0002698833152670308
sS'http://www.cc.gatech.edu/intelnonnumeric'
p1348
F0.0003412958190163069
sS'http://tsquare.gatech.edu'
p1349
F0.0002688699463692898
sS'http://www.cc.gatech.edu/dimacs10'
p1350
F0.0005021103990911147
sS'http://gacomputes.cc.gatech.edu/accessibility-info?None&month:int=10&year:int=2014&orig_query=None#p'
p1351
F0.0002652679385544622
sS'http://www.cc.gatech.edu/robotics'
p1352
F0.00033767544385760286
sS'http://www.cc.gatech.edu/cogsci'
p1353
F0.00031883499860750934
sS'http://www.cc.gatech.edu/cercscloud'
p1354
F0.0003032818787853846
sS'http://users.ece.gatech.edu/~mdavenport'
p1355
F0.00027894673344271685
sS'http://gacomputes.cc.gatech.edu/accessibility-info?None&month:int=10&year:int=2014&orig_query=None#d'
p1356
F0.0002652679385544622
sS'http://www.crc.gatech.edu/uploads'
p1357
F0.00028562922747717287
sS'http://www.gradadmiss.gatech.edu/thesis'
p1358
F0.00030297583666869616
sS'mailto:joseph.petraglia@lcc.gatech.edu'
p1359
F0.00026969561758637486
sS'http://www.cc.gatech.edu/%7Ebrashear'
p1360
F0.00030362409671228803
sS'http://wiki.cc.gatech.edu/kacb-move'
p1361
F0.0002683336946301467
sS'MAILTO:eugene@cc.gatech.edu'
p1362
F0.0002809802857811607
sS'mailto:schancellor3@gatech.edu'
p1363
F0.0002697346593853361
sS'http://www.cc.gatech.edu/arya'
p1364
F0.0005088304137593869
sS'http://gpu-vsipl.gtri.gatech.edu'
p1365
F0.00029368543565683837
sS'http://www.cc.gatech.edu/~conte'
p1366
F0.0002783723162445501
sS'https://wiki.cc.gatech.edu/can-itab'
p1367
F0.0003412958190163069
sS'http://www.cc.gatech.edu/~bdilkina'
p1368
F0.00030083283623078883
sS'http://www.cc.gatech.edu/%7Ehabbasi'
p1369
F0.0002698833152670308
sS'http://wiki.cc.gatech.edu/cisec'
p1370
F0.0002683336946301467
sS'http://www.cc.gatech.edu/midice'
p1371
F0.0005163617794472454
sS'https://webwise.gtri.gatech.edu'
p1372
F0.00027444441244828764
sS'http://www.cc.gatech.edu/shapebank'
p1373
F0.0003412958190163069
sS'mailto:smishra@cc.gatech.edu'
p1374
F0.00027108037159792765
sS'http://smlv.cc.gatech.edu/2010'
p1375
F0.000273027506071963
sS'http://www.cc.gatech.edu/%7Eakumar'
p1376
F0.00033084479703184174
sS'http://www.cc.gatech.edu/~mromero'
p1377
F0.0002947493089542311
sS'http://wiki.cc.gatech.edu/ihpcl'
p1378
F0.0002683336946301467
sS'http://mikeb.inta.gatech.edu/cv'
p1379
F0.0003079789407016274
sS'https://wiki.cc.gatech.edu/geom'
p1380
F0.00029019511248799584
sS'http://www.cc.gatech.edu/reports'
p1381
F0.0002819104837821112
sS'http://www.ce.gatech.edu/%7Enbaker'
p1382
F0.00026969561758637486
sS'http://www.cc.gatech.edu/~danesh'
p1383
F0.0002881228989135069
sS'mailto:k.jiang@gatech.edu'
p1384
F0.0002887134784152764
sS'mailto:murdock@cc.gatech.edu'
p1385
F0.0002809802857811607
sS'http://sonify.psych.gatech.edu/presscoverage'
p1386
F0.000273027506071963
sS'http://wiki.cc.gatech.edu/chi2010'
p1387
F0.0002683336946301467
sS'http://www.coa.gatech.edu/beginningdesign08'
p1388
F0.0002794411505416428
sS'https://www.ceismc.gatech.edu/summerprograms'
p1389
F0.0003047451490579885
sS'http://www.oie.gatech.edu/sa'
p1390
F0.00028121654709704165
sS'mailto:amy.bruckman@cc.gatech.edu'
p1391
F0.00026969561758637486
sS'http://www.cc.gatech.edu/~traynor'
p1392
F0.00032478154916735114
sS'mailto:mhong@gatech.edu'
p1393
F0.0003425202027994804
sS'http://www.cc.gatech.edu/sponsors'
p1394
F0.0002734271271689967
sS'http://www.sic.gatech.edu/current'
p1395
F0.00034142029445895087
sS'http://wiki.cc.gatech.edu/sofra'
p1396
F0.0002683336946301467
sS'http://www.cc.gatech.edu/chord'
p1397
F0.0002734271271689967
sS'http://arc.gatech.edu/people.php'
p1398
F0.000273027506071963
sS'http://www.cc.gatech.edu/~lonnie'
p1399
F0.0002893708631137324
sS'https://www.gtisc.gatech.edu'
p1400
F0.000271714421364024
sS'http://www.cc.gatech.edu/~afb'
p1401
F0.0005857378771515873
sS'mailto:watersr@cc.gatech.edu'
p1402
F0.0002998170580859218
sS'http://www.cc.gatech.edu/PrivacyStatementPage.jsf;jsessionid=2C51F5BA072251DB31EC6E888B29F90D'
p1403
F0.00031175055036741713
sS'mailto:edwardo@cc.gatech.edu'
p1404
F0.0003017976402594482
sS'mailto:robot-lab-www@cc.gatech.edu'
p1405
F0.00043500181027580025
sS'http://www.parking.gatech.edu/info'
p1406
F0.00030084260116600435
sS'http://www.aco.gatech.edu/syllabi.html#Optimization'
p1407
F0.0002766970153064052
sS'http://www.cc.gatech.edu/~xliu66'
p1408
F0.0002887134784152764
sS'http://www.cc.gatech.edu/icecamp'
p1409
F0.000869916314923922
sS'mailto:communications@cc.gatech.edu'
p1410
F0.00027108037159792765
sS'http://www.scs.gatech.edu/about'
p1411
F0.000273027506071963
sS'http://www.cc.gatech.edu/~yjang37'
p1412
F0.000273027506071963
sS'http://www-static.cc.gatech.edu/%7Eturk'
p1413
F0.0005119337852115073
sS'http://www.provost.gatech.edu/town-hall-2013'
p1414
F0.000273027506071963
sS' http://www.cc.gatech.edu/gvu'
p1415
F0.00026969561758637486
sS'http://www.cc.gatech.edu/greenit'
p1416
F0.00027412197047255334
sS'mailto:alumni@cc.gatech.edu'
p1417
F0.00028713445888880774
sS'mailto:rama@cc.gatech.edu'
p1418
F0.00037914156600203847
sS'http://www.finaid.gatech.edu/scholarships'
p1419
F0.00028121654709704165
sS'http://www.crest.gatech.edu/publications'
p1420
F0.0003141613799330743
sS'http://www.cc.gatech.edu/hparch'
p1421
F0.0003412958190163069
sS'http://www.cc.gatech.edu/~bbb'
p1422
F0.00026969561758637486
sS'mailto:arch-beer@cc.gatech.edu'
p1423
F0.00030577572772975205
sS'http://wiki.cc.gatech.edu/SOHOSec'
p1424
F0.0002683336946301467
sS'mailto:mattnagel@gatech.edu'
p1425
F0.000273027506071963
sS'http://v2v.cc.gatech.edu'
p1426
F0.000288385047903782
sS'http://wiki.cc.gatech.edu/goalplanning@cc'
p1427
F0.0002683336946301467
sS'ttp://www.bitc.gatech.edu'
p1428
F0.00026969561758637486
sS'http://www.cc.gatech.edu/~jamer'
p1429
F0.0002903216299223185
sS'http://www.coa.gatech.edu'
p1430
F0.00028548755536116657
sS'http://www.cc.gatech.edu/~tpilsch'
p1431
F0.00028447378372485393
sS'mailto:keith@cc.gatech.edu'
p1432
F0.00026969561758637486
sS'MAILTO:pascal@cc.gatech.edu'
p1433
F0.0002809802857811607
sS'http://www.cc.gatech.edu/GTatHome'
p1434
F0.00027412197047255334
sS'http://gvu.cc.gatech.edu'
p1435
F0.0003568269456247499
sS'mailto:www-survey@cc.gatech.edu'
p1436
F0.00026969561758637486
sS'https://wiki.cc.gatech.edu/inspace'
p1437
F0.0003412958190163069
sS'http://oie.gatech.edu/content'
p1438
F0.00038175800020361675
sS'http://wiki.cc.gatech.edu/ntg'
p1439
F0.00027860350641145806
sS'http://www.sab.cc.gatech.edu/rss.php'
p1440
F0.00052375267542612
sS'mailto:amelia.pavlik@comm.gatech.edu'
p1441
F0.000273027506071963
sS'MAILTO:shikano@cc.gatech.edu'
p1442
F0.000284027494085921
sS'http://ael.gatech.edu/lab'
p1443
F0.0002690648584137492
sS'mailto:dollyp17@cc.gatech.edu'
p1444
F0.0002688699463692898
sS'http://www.cc.gatech.edu/aquarium'
p1445
F0.0003412958190163069
sS'http://www.omscs.gatech.edu'
p1446
F0.00031380990167724786
sS'http://kingkong.cc.gatech.edu'
p1447
F0.00027837919440421537
sS'http://www.cc.gatech.edu/~cseim6'
p1448
F0.0003763739439973069
sS'http://disl.cc.gatech.edu'
p1449
F0.00027108037159792765
sS'mailto:sarangk@cc.gatech.edu'
p1450
F0.0002847287554248263
sS'http://www.cc.gatech.edu/sites'
p1451
F0.0006374242605416952
sS'mailto:cm@chmsr.gatech.edu'
p1452
F0.00026969561758637486
sS'mailto:robotics-all-owner@cc.gatech.edu'
p1453
F0.00028713445888880774
sS'http://www.int6.gatech.edu'
p1454
F0.00047565532733568954
sS'http://gvu.cc.gatech.edu/index.php'
p1455
F0.000273027506071963
sS'mailto:aheard@cc.gatech.edu'
p1456
F0.00027444441244828764
sS'mailto:matthew.causey@lcc.gatech.edu'
p1457
F0.00026969561758637486
sS'http://www.cc.gatech.edu/ihpcl'
p1458
F0.0003032818787853846
sS'http://www.prism.gatech.edu/~wr43'
p1459
F0.00026969561758637486
sS'http://www.cc.gatech.edu/%7Eharrold'
p1460
F0.0002884551731178336
sS'http://www.cc.gatech.edu/~vetter'
p1461
F0.000273027506071963
sS'http://www.cc.gatech.edu/~karenliu'
p1462
F0.0007778488649309196
sS'http://wiki.cc.gatech.edu/theory'
p1463
F0.00028744807633949147
sS'http://www.gtri.gatech.edu'
p1464
F0.0003645122282041055
sS'http://disl.cc.gatech.edu/PeerTrust'
p1465
F0.00027108037159792765
sS'http://pag.gatech.edu'
p1466
F0.0002734271271689967
sS'http://www.cc.gatech.edu/nameourrobot'
p1467
F0.000271714421364024
sS'http://www.admission.gatech.edu/prospective'
p1468
F0.00028121654709704165
sS'http://www.cc.gatech.edu/%7Emhsung'
p1469
F0.00033084479703184174
sS'http://www.parents.gatech.edu'
p1470
F0.00038175800020361675
sS'http://pag.gatech.edu/conchord'
p1471
F0.0002734271271689967
sS'http://www.cc.gatech.edu/~sstrickl'
p1472
F0.00027450409976489384
sS'http://www.cc.gatech.edu/node'
p1473
F0.0016837982284437286
sS'mailto:samir@cc.gatech.edu'
p1474
F0.0002847287554248263
sS'http://users.ece.gatech.edu:80/ldh'
p1475
F0.00026969561758637486
sS'http://netlab.cc.gatech.edu'
p1476
F0.0002946944569465698
sS'mailto:jellis@cc.gatech.edu'
p1477
F0.00029621384145858194
sS'http://wiki.cc.gatech.edu/MedVault'
p1478
F0.0002683336946301467
sS'mailto:gopal@cc.gatech.edu'
p1479
F0.0002847287554248263
sS'http://www.cc.gatech.edu/~cpeikert'
p1480
F0.0006998876716947972
sS'http://gtisc.gatech.edu'
p1481
F0.0003217328332356184
sS'http://noise.gatech.edu/classes'
p1482
F0.00034819310797813707
sS'http://www.cc.gatech.edu/~yizhang'
p1483
F0.00027450409976489384
sS'mailto:harrold.@cc.gatech.edu'
p1484
F0.00026969561758637486
sS'http://guzdial.cc.gatech.edu/photos'
p1485
F0.0002894746179671243
sS'mailto:stefany@cc.gatech.edu'
p1486
F0.000273027506071963
sS'http://www.cc.gatech.edu/~milos'
p1487
F0.00028298769295711867
sS'http://wiki.cc.gatech.edu/scqualifier'
p1488
F0.0002683336946301467
sS'https://wiki.cc.gatech.edu/masters'
p1489
F0.00028281283404565715
sS'http://www.cc.gatech.edu/phdvisit'
p1490
F0.0002735769350290025
sS'mailto:thad@cc.gatech.edu'
p1491
F0.00026969561758637486
sS'http://www.gtisc.gatech.edu/pdf'
p1492
F0.000273027506071963
sS'https://cgi4.cc.gatech.edu/phps'
p1493
F0.0002899227318933653
sS'http://ipat.gatech.edu/health-systems-institute-announces-2014-george-fellows'
p1494
F0.00032258655391277364
sS'mailto:jessica.hodgins@cc.gatech.edu'
p1495
F0.00026969561758637486
sS'http://www.cc.gatech.edu/topicmodels'
p1496
F0.0003412958190163069
sS'http://www.cc.gatech.edu/~lwang'
p1497
F0.00031527647998813335
sS'http://www.cc.gatech.edu/publications-home'
p1498
F0.00028615793539860985
sS'http://www.cc.gatech.edu/inside-tso'
p1499
F0.0004175319213778822
sS'http://www.hsi.gatech.edu/pedcenter'
p1500
F0.00028242014367132903
sS'http://www.lcc.gatech.edu/%7Egromala'
p1501
F0.00026969561758637486
sS'mailto:theory-students [AT] cc.gatech.edu'
p1502
F0.00028713445888880774
sS'mailto:bacarter@cc.gatech.edu'
p1503
F0.0002688699463692898
sS'http://gacomputes.cc.gatech.edu/sitemap#documentContent'
p1504
F0.000421733174922994
sS'http://www.cc.gatech.edu/%7Ecdshaw'
p1505
F0.00026969561758637486
sS'http://wiki.cc.gatech.edu/MissionLab'
p1506
F0.0002683336946301467
sS'http://www.cc.gatech.edu/ebd'
p1507
F0.00031088466683156906
sS'http://www.cc.gatech.edu/~ksanjay'
p1508
F0.00028398108986966254
sS'http://www.gatech.edu/index.html'
p1509
F0.00034362065988208983
sS'http://wiki.cc.gatech.edu/inspace'
p1510
F0.0002683336946301467
sS'http://status.oit.gatech.edu'
p1511
F0.00027692617226696077
sS'http://www.cc.gatech.edu/csl'
p1512
F0.0003047578936488893
sS'http://wiki.cc.gatech.edu/hpc'
p1513
F0.0002683336946301467
sS'http://gvu.gatech.edu/foley-scholars-2014-2015'
p1514
F0.00032258655391277364
sS'http://www.cc.gatech.edu/~yael'
p1515
F0.00029241581254696317
sS'mailto:yuyingliu@gatech.edu'
p1516
F0.00028772845854070097
sS'http://wiki.cc.gatech.edu/cpl'
p1517
F0.0002683336946301467
sS'mailto:elizabeth.davis@psych.gatech.edu'
p1518
F0.00026969561758637486
sS'http://www.cc.gatech.edu/~cooperb'
p1519
F0.0002755377503357736
sS'http://www.policylibrary.gatech.edu/campus-use-facilities'
p1520
F0.00030084260116600435
sS'mailto:crouch@cc.gatech.edu'
p1521
F0.00026969561758637486
sS'http://www.ece.gatech.edu/~sudha'
p1522
F0.0003421458917203191
sS'http://www.cc.gatech.edu/~mattweb'
p1523
F0.0002688699463692898
sS'http://www.sic.gatech.edu/research'
p1524
F0.00029368543565683837
sS'http://www.cc.gatech.edu/~johnchen'
p1525
F0.00034600886640202556
sS'http://www.cc.gatech.edu/theory'
p1526
F0.0004682419352090795
sS'http://www.cc.gatech.edu/~praghave'
p1527
F0.0002766970153064052
sS'http://www.cc.gatech.edu//www.mediawiki.org/wiki/Manual:FA'
p1528
F0.00032609024292393804
sS'http://www.cc.gatech.edu/~ppande7'
p1529
F0.0002887134784152764
sS'http://www.cc.gatech.edu/%7Elex'
p1530
F0.000284027494085921
sS'https://support.cc.gatech.edu/inside-tso'
p1531
F0.00028699002400401014
sS'http://www.cc.gatech.edu/software'
p1532
F0.0002734271271689967
sS'mailto:ashwin.ram@cc.gatech.edu'
p1533
F0.00026969561758637486
sS'http://www.cc.gatech.edu/TermsOfServicePage.jsf;jsessionid=2C51F5BA072251DB31EC6E888B29F90D'
p1534
F0.00031175055036741713
sS'http://www.pilsch.gatech.edu/tech&war'
p1535
F0.0003861692971600916
sS'http://www.cc.gatech.edu/aco-threads'
p1536
F0.0003412958190163069
sS'http://www.cc.gatech.edu/tango'
p1537
F0.0002735769350290025
sS'http://www.cc.gatech.edu/gvu-proposals'
p1538
F0.0003412958190163069
sS'http://www.cc.gatech.edu/kacb-move'
p1539
F0.00031088466683156906
sS'http://www.cercs.gatech.edu/education.shtml'
p1540
F0.0002751888510406943
sS'http://www.cseprograms.gatech.edu/csephd'
p1541
F0.00030297583666869616
sS'http://www.cc.gatech.edu/~wzhuo3'
p1542
F0.00032059645226680737
sS'https://research.cc.gatech.edu/ecl'
p1543
F0.0003550636909337173
sS'http://www.cc.gatech.edu/seminar'
p1544
F0.0002734271271689967
sS'http://www.cc.gatech.edu/gacomputes'
p1545
F0.0004355971968904513
sS'http://www.cc.gatech.edu/cs1316'
p1546
F0.0003463234565360162
sS'http://www.tsquare.gatech.edu'
p1547
F0.0002893708631137324
sS'mailto:tba@cc.gatech.edu'
p1548
F0.0002688699463692898
sS'http://gacomputes.cc.gatech.edu/accessibility-info?None&month:int=2&year:int=2015&orig_query=None'
p1549
F0.00027762025280298223
sS'mailto:gtg732q@mail.gatech.edu'
p1550
F0.0002887134784152764
sS'http://undergradresearch.gatech.edu/uropdb'
p1551
F0.0003706274576963967
sS'http://gacomputes.cc.gatech.edu/accessibility-info#documentContent'
p1552
F0.0004290789606729221
sS'http://wiki.cc.gatech.edu/masters'
p1553
F0.0002683336946301467
sS'http://www.registrar.gatech.edu/home'
p1554
F0.0003180099916519254
sS'http://www.cc.gatech.edu/epl'
p1555
F0.0003363353155904419
sS'http://nssp.gatech.edu/faset'
p1556
F0.00038175800020361675
sS'http://www.ic.gatech.edu/current'
p1557
F0.00034142029445895087
sS'http://www.cc.gatech.edu/~mush33r'
p1558
F0.000288671811643115
sS' http://www.gvu.gatech.edu'
p1559
F0.000292646942251053
sS'mailto:andrzej@cc.gatech.edu'
p1560
F0.00026969561758637486
sS'http://www.chemistry.gatech.edu/faculty'
p1561
F0.0002783723162445501
sS'https://wiki.cc.gatech.edu/cisec'
p1562
F0.0003412958190163069
sS'http://www.cc.gatech.edu/MedVault'
p1563
F0.0003412958190163069
sS'https://wiki.cc.gatech.edu/systems'
p1564
F0.00029426877750612386
sS'http://www.cc.gatech.edu/~jmg'
p1565
F0.000271369406034766
sS'feed://www-static.cc.gatech.edu/streaming'
p1566
F0.00034026162609983345
sS'mailto:ericson@cc.gatech.edu'
p1567
F0.00027804365585987634
sS'http://www.registrar.gatech.edu'
p1568
F0.00031794504161524514
sS'http://www.cc.gatech.edu/%7Ebader'
p1569
F0.000273027506071963
sS'http://www/gatech.edu'
p1570
F0.00028772845854070097
sS'http://www.cc.gatech.edu/~hic'
p1571
F0.00028905518122526676
sS'mailto:david.rosen@me.gatech.edu'
p1572
F0.00026969561758637486
sS'http://www.cc.gatech.edu/dl'
p1573
F0.0007655151095390039
sS'https://wiki.cc.gatech.edu/crg'
p1574
F0.0003412958190163069
sS'http://www.int6.gatech.edu/?q=node'
p1575
F0.0002857285517933851
sS'mailto:chris.atkeson@cc.gatech.edu'
p1576
F0.00026969561758637486
sS'http://www.cc.gatech.edu/~parik'
p1577
F0.0003225003937257298
sS'http://wiki.cc.gatech.edu/alumni'
p1578
F0.0002683336946301467
sS'http://www-static.cc.gatech.edu/~john.stasko'
p1579
F0.00027832946843326154
sS'http://www.cc.gatech.edu/cse'
p1580
F0.000371642418128903
sS'http://lcc.gatech.edu/~bmagerko6'
p1581
F0.0002783723162445501
sS'http://www.cc.gatech.edu/apparch'
p1582
F0.0003412958190163069
sS'http://www.cseprograms.gatech.edu'
p1583
F0.00031985145894351997
sS'http://t-square.gatech.edu/samigo'
p1584
F0.000292646942251053
sS'http://prx.library.gatech.edu/login?url=http:'
p1585
F0.00032365321593827917
sS'http://www.cc.gatech.edu/~mustaq'
p1586
F0.00037206260227928665
sS'http://www.cc.gatech.edu/~fernando'
p1587
F0.00027450409976489384
sS'http://www.cc.gatech.edu/~jiangf'
p1588
F0.00026969561758637486
sS'http://www.math.gatech.edu/course'
p1589
F0.0002766970153064052
sS'http://www.cc.gatech.edu/rim'
p1590
F0.00030315471514621637
sS'http://www.gvu.gatech.edu/ii'
p1591
F0.0003286647562761707
sS'http://www.cc.gatech.edu/news'
p1592
F0.002008358639476224
sS'http://www.cc.gatech.edu/dorn'
p1593
F0.00033476819533406624
sS'http://gvu.gatech.edu'
p1594
F0.0006379085942555939
sS'http://www.cc.gatech.edu/~byron'
p1595
F0.00028398108986966254
sS'http://www.lcc.gatech.edu/~ksutton'
p1596
F0.00026969561758637486
sS'http://www.adapts.gatech.edu'
p1597
F0.00032365321593827917
sS'http://www.gotech.gatech.edu/plugins'
p1598
F0.0003047451490579885
sS'http://wiki.cc.gatech.edu/ccl'
p1599
F0.0002683336946301467
sS'http://www.cc.gatech.edu/hplab'
p1600
F0.0003412958190163069
sS'feed://rss.video.gatech.edu/i'
p1601
F0.0002822432808137772
sS'http://disl.cc.gatech.edu/XWRAPElite'
p1602
F0.00027108037159792765
sS'http://wiki.cc.gatech.edu/ccg'
p1603
F0.0003254112009189515
sS'www.cc.gatech.edu/~jli351'
p1604
F0.0003210778004203727
sS'http://www.cc.gatech.edu/~shawj'
p1605
F0.00026969561758637486
sS'http://www.cc.gatech.edu/opinion'
p1606
F0.0002838342865392026
sS'mailto:nelson.baker@ce.gatech.edu'
p1607
F0.00026969561758637486
sS'http://gacomputes.cc.gatech.edu/sitemap'
p1608
F0.0035743755873235764
sS'http://wiki.cc.gatech.edu/arriaga'
p1609
F0.0002683336946301467
sS'http://gacomputes.cc.gatech.edu/mail_password_form#documentContent'
p1610
F0.00041092053653280105
sS'http://idh.gatech.edu/hg'
p1611
F0.00028027767304898894
sS'http://www.cc.gatech.edu/~daz'
p1612
F0.00027450409976489384
sS'http://ice-web.cc.gatech.edu/dl'
p1613
F0.0006173055754120598
sS'http://www.cc.gatech.edu/HyVM'
p1614
F0.00034293583051303795
sS'http://dilab.gatech.edu/biologically-inspired-design'
p1615
F0.00027832946843326154
sS'http://gacomputes.cc.gatech.edu/georgia-tech-announces-project-georgia-computes#documentContent'
p1616
F0.00042646163254993967
sS'mailto:jpreston@cc.gatech.edu'
p1617
F0.000273027506071963
sS'http://tinker.cc.gatech.edu/tinkpeople.html'
p1618
F0.00028807630269301563
sS'http://www.scs.gatech.edu/features'
p1619
F0.000273027506071963
sS'http://www.cc.gatech.edu/~thad'
p1620
F0.0007202768265813276
sS'http://cc.gatech.edu/scmag'
p1621
F0.00030362409671228803
sS'http://www.cc.gatech.edu/%7Emarshini'
p1622
F0.00030362409671228803
sS'mailto:pater@gatech.edu'
p1623
F0.0003200353491603578
sS'http://www.psychology.gatech.edu'
p1624
F0.00026969561758637486
sS'http://www.cc.gatech.edu/~lxiong'
p1625
F0.00027108037159792765
sS'mailto:fdk@cc.gatech.edu'
p1626
F0.0002755377503357736
sS'http://www.cc.gatech.edu/CHI2004WS'
p1627
F0.0002735769350290025
sS'mailto:tg@isye.gatech.edu'
p1628
F0.00026969561758637486
sS'http://www.cc.gatech.edu/sctofighi%40gatech.edu'
p1629
F0.00028615793539860985
sS'ericson@cc.gatech.edu'
p1630
F0.00027444441244828764
sS'http://www.cc.gatech.edu/WallLab'
p1631
F0.00027412197047255334
sS'http://www.cc.gatech.edu/~erika'
p1632
F0.00028173289981191864
sS'http://www.cc.gatech.edu/kginternal'
p1633
F0.00027412197047255334
sS'http://hpc.gatech.edu'
p1634
F0.000273027506071963
sS'http://www.cc.gatech.edu/randy'
p1635
F0.00027412197047255334
sS'http://ta-app.cc.gatech.edu'
p1636
F0.0002834692054638084
sS'http://www.cc.gatech.edu/~rhim'
p1637
F0.00028859646658223114
sS'http://www.cc.gatech.edu/isr'
p1638
F0.00040111356422921146
sS'mailto:alicia@cc.gatech.edu'
p1639
F0.00030338494896722676
sS'mailto:talent@cc.gatech.edu'
p1640
F0.0003249024595047766
sS'https://wiki.cc.gatech.edu/cellbuzz-admin'
p1641
F0.0003412958190163069
sS'http://wiki.cc.gatech.edu/GSCGuide'
p1642
F0.0002683336946301467
sS'http://www.cc.gatech.edu/%7Eaameek'
p1643
F0.00027108037159792765
sS'http://www.pe.gatech.edu'
p1644
F0.00029476742054772585
sS'http://egovision12.cc.gatech.edu/people.htm'
p1645
F0.0017819016689868228
sS'mailto:aquamoose-request@cc.gatech.edu'
p1646
F0.00033312489842549656
sS'http://www.cc.gatech.edu/PasswordRecoveryPage.jsf;jsessionid=2C51F5BA072251DB31EC6E888B29F90D'
p1647
F0.00031175055036741713
sS'http://www.cc.gatech.edu/LTDesign'
p1648
F0.0003412958190163069
sS'http://www.gtri.gatech.edu/director-mcgrath'
p1649
F0.000273027506071963
sS'http://www.cc.gatech.edu/~pengzang'
p1650
F0.0002965722371259038
sS'http://wiki.cc.gatech.edu/apparch'
p1651
F0.0002683336946301467
sS'http://wiki.cc.gatech.edu/ms-hci'
p1652
F0.0002683336946301467
sS'mailto:vempala@cc.gatech.edu'
p1653
F0.00030338494896722676
sS'mailto:bill.ribarsky@cc.gatech.edu'
p1654
F0.00026969561758637486
sS'mailto:jpatrao@cc.gatech.edu'
p1655
F0.0002847287554248263
sS'mailto:pdns@cc.gatech.edu'
p1656
F0.00028713445888880774
sS'http://www.admission.gatech.edu/jump'
p1657
F0.00028562922747717287
sS'http://www.cc.gatech.edu/%7Espencer'
p1658
F0.0002881228989135069
sS'http://www.cc.gatech.edu/~ssahay'
p1659
F0.0002755377503357736
sS'http://www.cc.gatech.edu/roboteducation'
p1660
F0.0003412958190163069
sS'mailto:zainmc@cc.gatech.edu'
p1661
F0.0002847287554248263
sS'http://www.cc.gatech.edu/~jtan34'
p1662
F0.0009123615597562879
sS'http://wiki.cc.gatech.edu/photography'
p1663
F0.0002683336946301467
sS'http://www.cc.gatech.edu/~carlson'
p1664
F0.00034600886640202556
sS'http://www.cc.gatech.edu/developers.php'
p1665
F0.0003072217592554148
sS'http://www.cc.gatech.edu/index.html'
p1666
F0.0003859627946305413
sS'http://www.cc.gatech.edu/%7emungooni'
p1667
F0.00027108037159792765
sS'http://wiki.cc.gatech.edu/gtiscsrg'
p1668
F0.0002683336946301467
sS'http://pag.gatech.edu/dynodroid'
p1669
F0.0002734271271689967
sS'mailto:mromero%20.at.%20cc.gatech.edu?subject=IOS: Contact from homepage'
p1670
F0.00027108037159792765
sS'http://gacomputes.cc.gatech.edu/search?Creator=guzdial&sort_on=Date&sort_order=reverse'
p1671
F0.0003098449729747778
sS'http://www.cc.gatech.edu/~sherwell'
p1672
F0.0002906105653750771
sS'http://gtresearchnews.gatech.edu/liquidtext-software'
p1673
F0.00028173289981191864
sS'https://wiki.cc.gatech.edu/activities'
p1674
F0.0003412958190163069
sS'http://gacomputes.cc.gatech.edu/events#documentContent'
p1675
F0.00042697323091801077
sS'http://gacomputes.cc.gatech.edu/sitemap#portlet-navigation-tree'
p1676
F0.000421733174922994
sS'http://www.cc.gatech.edu/~cyan'
p1677
F0.0002698833152670308
sS'www.cc.gatech.edu/~lingliu/papers/2007'
p1678
F0.00027108037159792765
sS'http://gacomputes.cc.gatech.edu/search_rss?Creator=ericson&sort_on=Date&sort_order=reverse'
p1679
F0.00027843634996967625
sS'mailto:mengdie.hu@gatech.edu'
p1680
F0.0002697346593853361
sS'http://pleuma.cc.gatech.edu/aristotle'
p1681
F0.0002690648584137492
sS'http://www.cc.gatech.edu/~cstolper'
p1682
F0.0003286647562761707
sS'http://www.cc.gatech.edu/~ncb'
p1683
F0.0002698833152670308
sS'https://research.cc.gatech.edu/rim'
p1684
F0.00031200874706430745
sS'http://www.cc.gatech.edu/~agalanis'
p1685
F0.00028438232026380697
sS'http://www.cc.gatech.edu/fac'
p1686
F0.0011341551258155602
sS'http://www.assessment.gatech.edu/eReports'
p1687
F0.000273027506071963
sS'http://www.cc.gatech.edu/cap'
p1688
F0.00029976734013830803
sS'http://users.ece.gatech.edu/~chl'
p1689
F0.0002881228989135069
sS'http://www.cc.gatech.edu/c4gblis'
p1690
F0.0003412958190163069
sS'http://www.cc.gatech.edu/cas'
p1691
F0.001722935535076081
sS'http://www.cc.gatech.edu/~liam'
p1692
F0.0002965722371259038
sS'http://www.cc.gatech.edu/faq'
p1693
F0.00028016939241571346
sS'http://www.lcc.gatech.edu/~petraglia-bahri'
p1694
F0.00026969561758637486
sS'http://gacomputes.cc.gatech.edu/search_rss?Creator=bjordin&sort_on=Date&sort_order=reverse'
p1695
F0.0002992833540648797
sS'http://bigdata.gatech.edu/hg'
p1696
F0.00028027767304898894
sS'http://www.cc.gatech.edu/~hcarter8'
p1697
F0.0002882732983886104
sS'mailto:ptaylor@cc.gatech.edu'
p1698
F0.000273027506071963
sS'http://gacomputes.cc.gatech.edu/images-1'
p1699
F0.0003471884789165781
sS'http://wiki.cc.gatech.edu/uroc'
p1700
F0.0002683336946301467
sS'http://www.lcc.gatech.edu/~xinwei'
p1701
F0.00026969561758637486
sS'http://egovision12.cc.gatech.edu'
p1702
F0.00032598738117285404
sS'http://swiki.cc.gatech.edu:8080/Curator'
p1703
F0.000271369406034766
sS'mailto:i-team-owner@cc.gatech.edu'
p1704
F0.00028713445888880774
sS'https://wiki.cc.gatech.edu/ic-service'
p1705
F0.0003412958190163069
sS'https://research.cc.gatech.edu/theory'
p1706
F0.00027412197047255334
sS'http://dilab.cc.gatech.edu/dane'
p1707
F0.0003534342460544318
sS'http://www.gatech.edu/directories'
p1708
F0.0002900842845632868
sS'mailto:helpdesk@cc.gatech.edu?subject=Request%20from%20support.cc%20web%20page'
p1709
F0.0002690648584137492
sS'https://research.cc.gatech.edu/OpenSensing'
p1710
F0.00027412197047255334
sS'http://www.cc.gatech.edu/%7Eschoedl'
p1711
F0.00030375731754556535
sS'http://www.cc.gatech.edu/~ewz'
p1712
F0.0003092489931113707
sS'mailto:lab-managers-owner@cc.gatech.edu'
p1713
F0.00030577572772975205
sS'mailto:ammar@cc.gatech.edu'
p1714
F0.0002757970850666787
sS'http://www.cc.gatech.edu/arriaga'
p1715
F0.0003412958190163069
sS'https://wiki.cc.gatech.edu/bcn'
p1716
F0.0003222888489008458
sS'mailto:mhunter@cc.gatech.edu'
p1717
F0.000288671811643115
sS'http://www.cc.gatech.edu/future'
p1718
F0.001557334707022014
sS'mailto:ellendo@gatech.edu'
p1719
F0.0002996607673483471
sS'http://www.cc.gatech.edu/uarch'
p1720
F0.00037930975924722936
sS'http://www.sga.gatech.edu/graduate'
p1721
F0.00028949246732941933
sS'http://www.id.gatech.edu/people'
p1722
F0.0002860816947189663
sS'http://www.cse.gatech.edu/contact'
p1723
F0.00032387294536138483
sS'http://wiki.cc.gatech.edu/designcomp'
p1724
F0.00028250690661732724
sS'mailto:mary.trauner@oit.gatech.edu'
p1725
F0.00026969561758637486
sS'http://wiki.cc.gatech.edu/infrastructure'
p1726
F0.0002683336946301467
sS'https://wiki.cc.gatech.edu/salud'
p1727
F0.0003412958190163069
sS'http://swiki.cc.gatech.edu:8080/TAJ'
p1728
F0.000271369406034766
sS'http://wiki.cc.gatech.edu/garment'
p1729
F0.0002683336946301467
sS'http://dwig.lmc.gatech.edu/publ.html'
p1730
F0.000289046465764084
sS'https://wiki.cc.gatech.edu/ksi'
p1731
F0.0003412958190163069
sS'http://www-static.cc.gatech.edu/~gzhang3'
p1732
F0.0002688699463692898
sS'mailto:albert.badre@cc.gatech.edu'
p1733
F0.00026969561758637486
sS'http://www.cercs.gatech.edu/news.shtml'
p1734
F0.0002751888510406943
sS'mailto:spencer.rugaber@cc.gatech.edu'
p1735
F0.00026969561758637486
sS'mailto:kacb-move-owner@cc.gatech.edu'
p1736
F0.00028713445888880774
sS'http://www.cc.gatech.edu/external'
p1737
F0.00027108037159792765
sS'http://www.cc.gatech.edu/%7Eleomark'
p1738
F0.00028231046587004146
sS'http://www.cc.gatech.edu/vms'
p1739
F0.0003412958190163069
sS'http://gacomputes.cc.gatech.edu/mail_password_form?None&month:int=10&year:int=2014&orig_query=None'
p1740
F0.0004357458186413294
sS'http://www.math.gatech.edu/~young'
p1741
F0.0003225003937257298
sS'http://www.cc.gatech.edu/~west'
p1742
F0.00027569574831049626
sS'http://www.isye.gatech.edu'
p1743
F0.00032123022403807085
sS'http://sites.noise.gatech.edu/~srikanth'
p1744
F0.00028173289981191864
sS'http://www.prism.gatech.edu/~gt7247d'
p1745
F0.00026969561758637486
sS'mailto:kirk.englehardt@gtri.gatech.edu'
p1746
F0.000273027506071963
sS'http://gacomputes.cc.gatech.edu/events'
p1747
F0.0032907028415629608
sS'mailto:ellendo%20at%20gatech.edu'
p1748
F0.0002794411505416428
sS'http://www.spp.gatech.edu'
p1749
F0.00029368543565683837
sS'http://wiki.cc.gatech.edu/vtg'
p1750
F0.0002683336946301467
sS'https://wiki.cc.gatech.edu/ccl'
p1751
F0.0003412958190163069
sS'http://coweb.cc.gatech.edu/mediacomp-plan'
p1752
F0.0002899227318933653
sS'http://www.cc.gatech.edu//www.mediawiki.org/wiki/Manual:Configuration_setting'
p1753
F0.00032609024292393804
sS'https://wiki.cc.gatech.edu/RIMChat'
p1754
F0.0003412958190163069
sS'http://www.prism.gatech.edu/~gtg484v'
p1755
F0.00027108037159792765
sS'http://www.gatech.edu/psychology'
p1756
F0.00026969561758637486
sS'https://wiki.cc.gatech.edu/ccg'
p1757
F0.0002690648584137492
sS'http://www.prism.gatech.edu/~rc7'
p1758
F0.0003091855726808019
sS'https://wiki.cc.gatech.edu/hccquals'
p1759
F0.0003412958190163069
sS'http://www.cc.gatech.edu/~atish'
p1760
F0.00029241581254696317
sS'http://gacomputes.cc.gatech.edu/images-1#portlet-navigation-tree'
p1761
F0.00027809881718655676
sS'https://wiki.cc.gatech.edu/incomingphd'
p1762
F0.00028600281504405627
sS'https://wiki.cc.gatech.edu/pset'
p1763
F0.0003412958190163069
sS'mailto:riedl@cc.gatech.edu'
p1764
F0.0004998553712565615
sS'mailto:bmorrison@gatech.edu'
p1765
F0.0002697346593853361
sS'https://research.cc.gatech.edu/muri'
p1766
F0.0004672205772889152
sS'http://www.cc.gatech.edu/RegistrationPage.jsf;jsessionid=2C51F5BA072251DB31EC6E888B29F90D'
p1767
F0.00031175055036741713
sS'http://www.cc.gatech.edu/~tmk'
p1768
F0.00027108037159792765
sS'mailto:nancyn@cc.gatech.edu'
p1769
F0.0003460356456304604
sS'http://www.cc.gatech.edu/%7Ecalton'
p1770
F0.0003414505778696801
sS'http://materials.gatech.edu'
p1771
F0.00030338494896722676
sS'http://coweb.cc.gatech.edu/ice-gt'
p1772
F0.0008623604666902126
sS'https://wiki.cc.gatech.edu/chmpr'
p1773
F0.0003412958190163069
sS'mailto:gregory.abowd@cc.gatech.edu'
p1774
F0.00026969561758637486
sS'http://www.cc.gatech.edu/~guerra'
p1775
F0.0002783723162445501
sS'http://gacomputes.cc.gatech.edu/Members'
p1776
F0.0032907028415629608
sS'http://www.cc.gatech.edu/bcn'
p1777
F0.0003222888489008458
sS'mailto:robotics-all@cc.gatech.edu'
p1778
F0.00028713445888880774
sS'http://www.cc.gatech.edu/~keith'
p1779
F0.00044569373823110433
sS'http://www.ti.gatech.edu/people'
p1780
F0.00026969561758637486
sS'http://flashpoint.gatech.edu'
p1781
F0.0003192095315902722
sS'http://www.ceismc.gatech.edu/summercamps'
p1782
F0.00031798315456871686
sS'http://www.cc.gatech.edu/Edit.asp?R=6405A86F-4937-4913-ADA6-BF27E057A8F1'
p1783
F0.0003351953744415918
sS'mailto:scarson@cc.gatech.edu'
p1784
F0.000273027506071963
sS'mailto:nero@cc.gatech.edu'
p1785
F0.0002755377503357736
sS'mailto:gregory.turk@cc.gatech.edu'
p1786
F0.00026969561758637486
sS'http://www.cc.gatech.edu/~haro'
p1787
F0.00026969561758637486
sS'http://www.research.gatech.edu/institutes'
p1788
F0.000273027506071963
sS'http://www.lcc.gatech.edu/~rauch'
p1789
F0.00026969561758637486
sS'http://www.gvu.gatech.edu/node'
p1790
F0.0002857285517933851
sS'http://gacomputes.cc.gatech.edu/accessibility-info?None&month:int=12&year:int=2014&orig_query=None#d'
p1791
F0.0002652679385544622
sS'https://wiki.cc.gatech.edu/humanoids'
p1792
F0.0002906105653750771
sS'http://www.cc.gatech.edu/3dpvt08'
p1793
F0.0003412958190163069
sS'http://www.cc.gatech.edu/%7Etraynor'
p1794
F0.0002882732983886104
sS'http://home.cc.gatech.edu/allison'
p1795
F0.0005122392015165788
sS'http://www.gatech.edu/inc'
p1796
F0.000273027506071963
sS'http://www.cc.gatech.edu/gvu'
p1797
F0.0018127438762103479
sS'mailto:helpdesk@cc.gatech.edu'
p1798
F0.00028006563969720273
sS'http://www.cc.gatech.edu/polaris'
p1799
F0.00027412197047255334
sS'http://www.cc.gatech.edu/squeakbook'
p1800
F0.00043142702131991655
sS'http://hcc.cc.gatech.edu'
p1801
F0.00029427807697584093
sS'http://gtisc.gatech.edu/index.html'
p1802
F0.0003633153664662774
sS'mailto:afb@cc.gatech.edu'
p1803
F0.00026969561758637486
sS'http://www.cc.gatech.edu/support-tools'
p1804
F0.00041753192137788226
sS'http://www.cc.gatech.edu/AHRI'
p1805
F0.0003412958190163069
sS'http://www.analytics.gatech.edu'
p1806
F0.00028803724056648963
sS'http://www-static.cc.gatech.edu/%7Elingliu'
p1807
F0.00027108037159792765
sS'http://www.coc.gatech.edu'
p1808
F0.0003686976932338825
sS'mailto:mjcramer@cc.gatech.edu'
p1809
F0.00028772845854070097
sS'http://wiki.cc.gatech.edu/ic-service'
p1810
F0.0002683336946301467
sS'http://emsscheduling.gatech.edu'
p1811
F0.00030084260116600435
sS'http://www-static.cc.gatech.edu/projects'
p1812
F0.0003809506088683377
sS'http://tlw-proxy.gatech.edu/research'
p1813
F0.000273027506071963
sS'https://wiki.cc.gatech.edu/MissionLab'
p1814
F0.0003412958190163069
sS'http://www.cc.gatech.edu/robocup'
p1815
F0.00033767544385760286
sS'http://www.math.gatech.edu/~tetali'
p1816
F0.0002974866979538949
sS'http://guzdial.cc.gatech.edu/LuauNZ-better.MOV'
p1817
F0.0002838342865392026
sS'http://wiki.cc.gatech.edu/aco-threads'
p1818
F0.0002683336946301467
sS'http://coweb.cc.gatech.edu/mediaComp-teach#Wonderland'
p1819
F0.00028562922747717287
sS'http://www.lcc.gatech.edu/%7Emcguire'
p1820
F0.00026969561758637486
sS'http://www.cc.gatech.edu/~camrutk'
p1821
F0.0002882732983886104
sS'https://wiki.cc.gatech.edu/AHRI'
p1822
F0.0003412958190163069
sS'http://people.math.gatech.edu/~bonetto'
p1823
F0.0002766970153064052
sS'http://www.cc.gatech.edu/lst'
p1824
F0.00028176323657864435
sS'http://pbl.cc.gatech.edu/cs2390'
p1825
F0.0002838342865392026
sS'mailto:is-students-owner@cc.gatech.edu'
p1826
F0.00028713445888880774
sS'http://dwig.lmc.gatech.edu/index.html"'
p1827
F0.000289046465764084
sS'http://www.library.gatech.edu'
p1828
F0.0002855426180219466
sS'http://cool.coa.gatech.edu/patientroom'
p1829
F0.00028242014367132903
sS'https://wiki.cc.gatech.edu/EN'
p1830
F0.0003412958190163069
sS'mailto:minsung@gatech.edu'
p1831
F0.0005066518659748209
sS'http://www.cc.gatech.edu/%7Ebli46'
p1832
F0.0002690648584137492
sS'http://research.cc.gatech.edu'
p1833
F0.000283306740565882
sS'mailto:isbell@cc.gatech.edu'
p1834
F0.0003554322326478305
sS'http://wiki.cc.gatech.edu/c4gblis'
p1835
F0.0002683336946301467
sS'http://www.cc.gatech.edu/tso-projects'
p1836
F0.0003412958190163069
sS'http://www2.isye.gatech.edu/~nemirovs'
p1837
F0.00027894673344271685
sS'http://www.imdl.gatech.edu'
p1838
F0.000273027506071963
sS'mailto:diane.gromala@lcc.gatech.edu'
p1839
F0.00026969561758637486
sS'?uri=http://www.cc.gatech.edu/~cpeikert'
p1840
F0.0004134728841651688
sS'http://www.cc.gatech.edu/~harrold'
p1841
F0.0002866913463143072
sS'http://www.cc.gatech.edu/masters'
p1842
F0.00028281283404565715
sS'http://www.cc.gatech.edu/inuse.php'
p1843
F0.0003072217592554148
sS'http://wiki.cc.gatech.edu/collab-managers'
p1844
F0.0002683336946301467
sS'http://ice.cc.gatech.edu/dl'
p1845
F0.0007655151095390038
sS'http://www.prism.gatech.edu/~ms351'
p1846
F0.0002834692054638084
sS'http://www-static.cc.gatech.edu/~jiantao'
p1847
F0.0002839810898696626
sS'http://wiki.cc.gatech.edu/hccquals'
p1848
F0.0002683336946301467
sS'http://www.cc.gatech.edu/~akhan67'
p1849
F0.00029581139701574996
sS'http://gacomputes.cc.gatech.edu/contact-info?None&month:int=10&year:int=2014&orig_query=None#portlet'
p1850
F0.0002652679385544622
sS'http://wiki.cc.gatech.edu/sting'
p1851
F0.0002683336946301467
sS'mailto:josie@gatech.edu'
p1852
F0.000273027506071963
sS'http://www.arc.gatech.edu/colloquiumspring2010.php'
p1853
F0.00028438232026380697
sS'https://wiki.cc.gatech.edu/LTDesign'
p1854
F0.0003412958190163069
sS'mailto:%20spencer@cc.gatech.edu'
p1855
F0.000284027494085921
sS'mailto:janet.murray@lcc.gatech.edu'
p1856
F0.00026969561758637486
sS'mailto:hisham@cc.gatech.edu'
p1857
F0.0002847287554248263
sS'http://www.cc.gatech.edu/~mstilman'
p1858
F0.0003959189140479557
sS'http://cirruscloud.gatech.edu'
p1859
F0.0002734271271689967
sS'http://www.cc.gatech.edu/faculty'
p1860
F0.0004884489301056853
sS'mailto:paques@cc.gatech.edu'
p1861
F0.0002755377503357736
sS'http://www.cc.gatech.edu/cisec'
p1862
F0.0003412958190163069
sS'http://www.c21u.gatech.edu'
p1863
F0.00033540307921503786
sS'http://www.cc.gatech.edu/inside'
p1864
F0.000667322579308898
sS'http://www.news.gatech.edu/features'
p1865
F0.00027947398888152476
sS'http://people.math.gatech.edu/~thomas'
p1866
F0.0002766970153064052
sS'http://www.gtisc.gatech.edu/tigerteamwinner05.html'
p1867
F0.000273027506071963
sS'mailto:heine@gatech.edu'
p1868
F0.0002958760458445388
sS'http://www.cc.gatech.edu/~schen351'
p1869
F0.00035590815668008817
sS'http://www.gatech.edu/music'
p1870
F0.00028562922747717287
sS'mailto:blair@cc.gatech.edu'
p1871
F0.0002970746212829656
sS'http://www.cc.gatech.edu/~aciptadi'
p1872
F0.00032598738117285404
sS'http://www.lcc.gatech.edu/gallery'
p1873
F0.00026969561758637486
sS'http://ebirah.cc.gatech.edu/~jtullio'
p1874
F0.00026969561758637486
sS'mailto:bhuvan@cc.gatech.edu'
p1875
F0.0002847287554248263
sS'mailto:wzhu@cc.gatech.edu'
p1876
F0.00027108037159792765
sS'http://www.arc.gatech.edu/arc3.php'
p1877
F0.0002741125084824956
sS'http://www.cc.gatech.edu/foley-scholar-recipients-and-finalists'
p1878
F0.0002917983607726173
sS'mailto:is-students@cc.gatech.edu'
p1879
F0.00028713445888880774
sS'mailto:uroc-announce@mailman.cc.gatech.edu'
p1880
F0.00028713445888880774
sS'http://www.cc.gatech.edu/%3Cnolink%3E'
p1881
F0.0002783723162445501
sS'http://wiki.cc.gatech.edu/systems-lab'
p1882
F0.0002683336946301467
sS'http://www.calendar.gatech.edu/events'
p1883
F0.00038175800020361675
sS'http://www.cse.gatech.edu/research'
p1884
F0.0003498270754281144
sS'http://www.cc.gatech.edu/~quocminh'
p1885
F0.0002755377503357736
sS'http://www.cc.gatech.edu/%7Erhim'
p1886
F0.0002698833152670308
sS'http://www.newstudents.gatech.edu/grad'
p1887
F0.00028281283404565715
sS'http://coweb.cc.gatech.edu/mediaComp-teach'
p1888
F0.0013054532313300825
sS'http://www.cc.gatech.edu/~xczhang'
p1889
F0.0002783723162445501
sS'http://www.cc.gatech.edu/splash'
p1890
F0.00031212261298017955
sS'http://www.coe.gatech.edu'
p1891
F0.000273027506071963
sS'http://www.cc.gatech.edu/contact'
p1892
F0.0015168354610362107
sS'mailto:caverlee@cc.gatech.edu'
p1893
F0.00027108037159792765
sS'http://www.cc.gatech.edu/~jarek'
p1894
F0.00040459977230928316
sS'http://www.cc.gatech.edu/~buttler'
p1895
F0.00027108037159792765
sS'http://ml.cc.gatech.edu'
p1896
F0.00037013209527966763
sS'http://swiki.cc.gatech.edu/icecamp'
p1897
F0.0003392436221663633
sS'http://www.cc.gatech.edu/~gte115v'
p1898
F0.00038622472103449064
sS'http://dcom.arch.gatech.edu/ellen'
p1899
F0.0002794411505416428
sS'http://www.cc.gatech.edu/conferences'
p1900
F0.0005587667968121927
sS'http://http://www.cercs.gatech.edu/'
p1901
F0.000273027506071963
sS'http://www.gatech.edu/comm'
p1902
F0.00028298684927318253
sS'http://www.cc.gatech.edu/~kekechen'
p1903
F0.00027108037159792765
sS'http://dilab.gatech.edu/AAAI-10-VRR-Workshop'
p1904
F0.0002794411505416428
sS'https://wiki.cc.gatech.edu/photography'
p1905
F0.0003222888489008458
sS'http://www.cc.gatech.edu//www.mediawiki.org'
p1906
F0.009557487380502598
sS'http://www-static.cc.gatech.edu/~TBA'
p1907
F0.0002688699463692898
sS'mailto:andrew.quay@oip.gatech.edu'
p1908
F0.00026969561758637486
sS'http://wiki.cc.gatech.edu/RIMChat'
p1909
F0.0002683336946301467
sS'http://poloclub.gatech.edu/idea2013'
p1910
F0.00028027767304898894
sS'http://www.cc.gatech.edu/three-year-course-outline '
p1911
F0.00030297583666869616
sS'http://disl.cc.gatech.edu/PeerCQ'
p1912
F0.00027108037159792765
sS'http://www.cc.gatech.edu/~rjl'
p1913
F0.0002783723162445501
sS'mailto:vincent.martin@gatech.edu'
p1914
F0.0002697346593853361
sS'http://www.cc.gatech.edu/~webb'
p1915
F0.0002881228989135069
sS'http://www.cercs.gatech.edu/iab09'
p1916
F0.0002751888510406943
sS'http://humanslab.ece.gatech.edu'
p1917
F0.000273027506071963
sS'http://www.cc.gatech.edu/graduated'
p1918
F0.0002697346593853361
sS'mailto:arthur.murphy@arch.gatech.edu'
p1919
F0.00026969561758637486
sS'http://www.arc.gatech.edu/index.php'
p1920
F0.00034871751750885745
sS'https://wiki.cc.gatech.edu/3dpvt08'
p1921
F0.0003412958190163069
sS'http://www.cc.gatech.edu/WUAB'
p1922
F0.0005092410835312493
sS'https://wiki.cc.gatech.edu/scqualifier'
p1923
F0.0003412958190163069
sS'http://www.cc.gatech.edu/visiting'
p1924
F0.0002734271271689967
sS'http://www.prism.gatech.edu/%7Eacunningham7'
p1925
F0.0002690648584137492
sS'http://gacomputes.cc.gatech.edu/author?None&month:int=9&year:int=2014&orig_query=None'
p1926
F0.0003003248461801518
sS'http://www.physics.gatech.edu/people'
p1927
F0.0002783723162445501
sS'mailto:jason.maderer@comm.gatech.edu'
p1928
F0.000273027506071963
sS'http://www.cercs.gatech.edu'
p1929
F0.0009775712281844251
sS'https://wiki.cc.gatech.edu/firefly'
p1930
F0.0003412958190163069
sS'http://acmelab.gatech.edu'
p1931
F0.00028548755536116657
sS' http://www.gatech.edu'
p1932
F0.000292646942251053
sS'mailto:anurag1@cc.gatech.edu'
p1933
F0.0002847287554248263
sS'http://swiki.cc.gatech.edu:8080/cs8803-aiad-sp08'
p1934
F0.0002688699463692898
sS'http://purchasing.cc.gatech.edu/technical-purchasing'
p1935
F0.00028006563969720273
sS'mailto:keesah.hall@gtri.gatech.edu'
p1936
F0.00026969561758637486
sS'http://www.cc.gatech.edu/~kwatra'
p1937
F0.0003460088664020255
sS'http://www.prism.gatech.edu/~hk28'
p1938
F0.000273027506071963
sS'http://www.cc.gatech.edu/~vempala'
p1939
F0.0005711285811121282
sS'mailto:david.terraso@cos.gatech.edu'
p1940
F0.000273027506071963
sS'http://www.cc.gatech.edu/~ekhalil3'
p1941
F0.00028772845854070097
sS'http://www.cc.gatech.edu/roles'
p1942
F0.0003412958190163069
sS'mailto:aianton@cc.gatech.edu'
p1943
F0.00032365321593827917
sS'http://www.gatech.edu/support'
p1944
F0.000494233061891526
sS'http://gacomputes.cc.gatech.edu/search_form?None&month:int=2&year:int=2015&orig_query=None'
p1945
F0.00027762025280298223
sS'http://www.cc.gatech.edu/pubs'
p1946
F0.0002734271271689967
sS'http://smartech.gatech.edu/bitstream'
p1947
F0.00027468237941275533
sS'http://www.cc.gatech.edu/student.services'
p1948
F0.0020532269368370277
sS'http://www.cc.gatech.edu/sigcse'
p1949
F0.0002735769350290025
sS'http://gacomputes.cc.gatech.edu/accessibility-info?None&month:int=12&year:int=2014&orig_query=None#p'
p1950
F0.0002652679385544622
sS'mailto:binhhan@gatech.edu'
p1951
F0.00028772845854070097
sS'http://www.cc.gatech.edu/~sbakhshi'
p1952
F0.000273027506071963
sS'mailto:rbheda3@gatech.edu'
p1953
F0.0002958760458445388
sS'http://gacomputes.cc.gatech.edu/search_form?None&month:int=8&year:int=2014&orig_query=None'
p1954
F0.00027762025280298223
sS'http://www.oit.gatech.edu/newsletter'
p1955
F0.0005039785622949668
sS'https://wiki.cc.gatech.edu/graphics'
p1956
F0.0003412958190163069
sS'http://www.cc.gatech.edu/contact.php'
p1957
F0.0003072217592554148
sS'http://www.cc.gatech.edu/~virat'
p1958
F0.0003062583739064713
sS'http://www.cc.gatech.edu/~fujimoto'
p1959
F0.00028298769295711867
sS'http://cgi3.cc.gatech.edu/cgi-bin'
p1960
F0.00033312489842549656
sS'http://www.cc.gatech.edu/%7Ebikash'
p1961
F0.0003010035659932652
sS'http://www-static.cc.gatech.edu/~isbell'
p1962
F0.000273027506071963
sS'http://www.cc.gatech.edu/edutech'
p1963
F0.00032732299912613806
sS'https://research.cc.gatech.edu/alurulab'
p1964
F0.00027412197047255334
sS'http://www.cc.gatech.edu/program'
p1965
F0.00047501746984613866
sS'http://www.cercs.gatech.edu/facilities.shtml'
p1966
F0.0002751888510406943
sS'http://www.oit.gatech.edu/sites'
p1967
F0.00028016939241571346
sS'http://www.prism.gatech.edu/~gtg505u'
p1968
F0.00027108037159792765
sS'http://coweb.cc.gatech.edu/csl'
p1969
F0.00038623118852477295
sS'http://ice.cc.gatech.edu/apexam_final'
p1970
F0.00028562922747717287
sS'http://www-static.cc.gatech.edu/~kekechen'
p1971
F0.0002951832961571978
sS'http://faq.oit.gatech.edu/content'
p1972
F0.00030211444781606594
sS'mailto:iulian@cc.gatech.edu'
p1973
F0.0002697346593853361
sS'http://www.cc.gatech.edu/~miracle'
p1974
F0.00036112040712110927
sS'http://women.cc.gatech.edu'
p1975
F0.00028702722812611677
sS'http://www-static.cc.gatech.edu/~bhuvan'
p1976
F0.0002688699463692898
sS'http://www.cc.gatech.edu/~colinh'
p1977
F0.00026969561758637486
sS'http://www-static.cc.gatech.edu/~hutch'
p1978
F0.00032866475627617064
sS'http://wiki.cc.gatech.edu/hplab'
p1979
F0.0002683336946301467
sS'mailto:duong.phan@gatech.edu'
p1980
F0.0002847287554248263
sS'http://wiki.cc.gatech.edu/si-machines'
p1981
F0.0002683336946301467
sS'http://iai.gatech.edu'
p1982
F0.000330462440221043
sS'http://www.cercs.gatech.edu/iab08'
p1983
F0.0002751888510406943
sS'http://www.prism.gatech.edu/~dquigley7'
p1984
F0.0002903216299223185
sS'http://www.cc.gatech.edu/~paques'
p1985
F0.0002813501833792391
sS'http://gacomputes.cc.gatech.edu/search_form?None&month:int=9&year:int=2014&orig_query=None'
p1986
F0.00030517482127935547
sS'http://www.gvu.gatech.edu/wearable-tech-innovations'
p1987
F0.00031212261298017955
sS'http://www-static.cc.gatech.edu/academics'
p1988
F0.00028702722812611677
sS'http://www.cc.gatech.edu/~sha9'
p1989
F0.0006149937706616345
sS'http://www.cc.gatech.edu/research'
p1990
F0.0018387792132931143
sS'file://ftp.cc.gatech.edu/pub'
p1991
F0.00027996542936768623
sS'http://gacomputes.cc.gatech.edu/search?Creator=steven&sort_on=Date&sort_order=reverse'
p1992
F0.0003098449729747778
sS'mailto:brian.railing@gatech.edu'
p1993
F0.0002958760458445388
sS'http://www.prism.gatech.edu/~gte256x'
p1994
F0.00026969561758637486
sS'https://research.cc.gatech.edu/sdmatcercs'
p1995
F0.0003480913914894439
sS'https://wiki.cc.gatech.edu/roles'
p1996
F0.0003412958190163069
sS'http://www.cc.gatech.edu/~bhuvan'
p1997
F0.0002688699463692898
sS'http://gacomputes.cc.gatech.edu/events#portlet-navigation-tree'
p1998
F0.0004269732309180108
sS'https://t-square.gatech.edu/portal'
p1999
F0.0008919016492102855
sS'mailto:john.stasko@cc.gatech.edu'
p2000
F0.00026969561758637486
sS'http://www.cc.gatech.edu/~guru'
p2001
F0.0002698833152670308
sS'http://www.cc.gatech.edu/guzdial'
p2002
F0.000558449212085165
sS'mailto:chandler3@gatech.edu'
p2003
F0.0002697346593853361
sS'http://hsi.gatech.edu/er2012'
p2004
F0.00029659335565850964
sS'http://gacomputes.cc.gatech.edu/author'
p2005
F0.0016257506547855919
sS'http://swiki.cc.gatech.edu:8080/dvfx2004'
p2006
F0.00028562922747717287
sS'https://wiki.cc.gatech.edu/tso-projects'
p2007
F0.0003412958190163069
sS'http://www.cc.gatech.edu/~bas'
p2008
F0.00026969561758637486
sS'mailto:mark.iken@isye.gatech.edu'
p2009
F0.00026969561758637486
sS'http://wenke.gtisc.gatech.edu'
p2010
F0.000273027506071963
sS'https://t-square.gatech.edu'
p2011
F0.00034169201794969896
sS'http://www.cc.gatech.edu/PubPolicy'
p2012
F0.0002735769350290025
sS'https://t-square.gatech.edu/access'
p2013
F0.000292646942251053
sS'http://support.cc.gatech.edu/services'
p2014
F0.00029595402159060465
sS'http://www.cc.gatech.edu/~edwardo'
p2015
F0.00030083283623078883
sS'http://wiki.cc.gatech.edu/geom'
p2016
F0.00029326086856368034
sS'http://www.cc.gatech.edu/conted'
p2017
F0.00038015036158707576
sS'http://www.gvu.gatech.edu/perception'
p2018
F0.00030096608129940856
sS'http://www-static.cc.gatech.edu/~jx'
p2019
F0.000273027506071963
sS'mailto:arose@cc.gatech.edu'
p2020
F0.000273027506071963
sS'http://www.cc.gatech.edu/aristotle'
p2021
F0.00035762503123145463
sS'mailto:boaz.chiu@gtri.gatech.edu'
p2022
F0.00026969561758637486
sS'http://www.cc.gatech.edu/pubs.html'
p2023
F0.00027108037159792765
sS'http://www.idh.gatech.edu'
p2024
F0.0002690648584137492
sS'mailto:mudhakar@cc.gatech.edu'
p2025
F0.00027784994727251703
sS'http://wiki.cc.gatech.edu/INC'
p2026
F0.0002683336946301467
sS'http://www.undergradresearch.gatech.edu/research_option'
p2027
F0.0003250107294192898
sS'http://www.cc.gatech.edu/~beki'
p2028
F0.0003427148499026197
sS'http://www.cc.gatech.edu/compfreak'
p2029
F0.00037988855423929567
sS'http://www.cc.gatech.edu/%7Eninamf'
p2030
F0.0010823718246401376
sS'http://www.ceismc.gatech.edu/gazette'
p2031
F0.00034295494195909256
sS'http://www.cc.gatech.edu/~lrademac'
p2032
F0.000288385047903782
sS'http://www.cc.gatech.edu/~akmassey'
p2033
F0.0005495084902061912
sS'http://www.cc.gatech.edu/gvu-alum'
p2034
F0.000494509214462915
sS'http://www.cc.gatech.edu/%7Ecpeikert'
p2035
F0.00028187207599999635
sS'http://awarehome.imtc.gatech.edu'
p2036
F0.00040347252744998103
sS'http://www.finaid.gatech.edu/hope'
p2037
F0.00028121654709704165
sS'http://www.cc.gatech.edu/computing4fun'
p2038
F0.00032141340268005303
sS'http://wiki.cc.gatech.edu/lab-managers'
p2039
F0.00030926791305115395
sS'http://www.cc.gatech.edu/hrichter'
p2040
F0.0004656316931657644
sS'http://swiki.cc.gatech.edu:8080/csed'
p2041
F0.00027108037159792765
sS'http://poloclub.gatech.edu/cse6242'
p2042
F0.00028027767304898894
sS'http://gacomputes.cc.gatech.edu/accessibility-info?None&month:int=9&year:int=2014&orig_query=None'
p2043
F0.00030517482127935547
sS'http://www.cc.gatech.edu/~vigoda'
p2044
F0.0006359608873185647
sS'http://www.finaid.gatech.edu/loans'
p2045
F0.00028121654709704165
sS'http://www.cc.gatech.edu/~calvarez'
p2046
F0.0003460088664020255
sS'http://www.cc.gatech.edu/~fpark'
p2047
F0.000288671811643115
sS'http://www.cc.gatech.edu/webgames'
p2048
F0.00027412197047255334
sS'http://www.cc.gatech.edu/~gzhang3'
p2049
F0.0002688699463692898
sS'http://www.bursar.gatech.edu'
p2050
F0.0003035477105352512
sS'http://www.cc.gatech.edu/~junli'
p2051
F0.0002755377503357736
sS'http://www.orgdev.gatech.edu/training'
p2052
F0.00030240523711618254
sS'http://www.chbe.gatech.edu/faculty'
p2053
F0.000273027506071963
sS'http://www.cc.gatech.edu/ClimateSE'
p2054
F0.0003412958190163069
sS'http://www.prism.gatech.edu/~gt5163b'
p2055
F0.00027450409976489384
sS'http://gacomputes.cc.gatech.edu/search_form?None&month:int=12&year:int=2014&orig_query=None'
p2056
F0.0004553988677657565
sS'http://www.cc.gatech.edu/~mgielniak3'
p2057
F0.0002906105653750771
sS'http://www.cc.gatech.edu/sitemap'
p2058
F0.0015181764524529358
sS'http://www.gtisc.gatech.edu/securitysummit1008_webcast.html'
p2059
F0.0002822432808137772
sS'http://www.cc.gatech.edu/%7Evchandu'
p2060
F0.0002887134784152764
sS'http://www.hsi.gatech.edu'
p2061
F0.0004411519353312069
sS'http://www.cc.gatech.edu/~jgarg'
p2062
F0.00031527647998813335
sS'mailto:richard.grusin@lcc.gatech.edu'
p2063
F0.00026969561758637486
sS'http://www.cc.gatech.edu/~orso'
p2064
F0.0002876084774549817
sS'http://www.cc.gatech.edu/~reilly'
p2065
F0.00028173289981191864
sS'http://www.cc.gatech.edu/%7Emudhakar'
p2066
F0.00027108037159792765
sS'http://www.cc.gatech.edu/ai'
p2067
F0.0005233303775390698
sS'http://www.cseprograms.gatech.edu/csems'
p2068
F0.00030297583666869616
sS'http://www.cc.gatech.edu/inspace'
p2069
F0.0003412958190163069
sS'http://www.cse.gatech.edu'
p2070
F0.0022711239797060263
sS'http://www.cats.gatech.edu/content'
p2071
F0.000271714421364024
sS'http://users.ece.gatech.edu/~siva'
p2072
F0.000273027506071963
sS'mailto:cs7260-course-owner@mailman.cc.gatech.edu'
p2073
F0.00028713445888880774
sS'mailto:dmsmith@cc.gatech.edu'
p2074
F0.0002998170580859218
sS'http://www.cc.gatech.edu/links'
p2075
F0.0002900842845632868
sS'http://wiki.cc.gatech.edu/cercs'
p2076
F0.0002683336946301467
sS'http://www.cc.gatech.edu/HomePage.jsf;jsessionid=2C51F5BA072251DB31EC6E888B29F90D'
p2077
F0.00031175055036741713
sS'http://www.cc.gatech.edu/ccl'
p2078
F0.0005505302826525004
sS'https://research.cc.gatech.edu/eilab'
p2079
F0.0005894030447135922
sS'http://www.cc.gatech.edu/vwlab'
p2080
F0.00040693539403072415
sS'http://wiki.cc.gatech.edu/cvpr09-org'
p2081
F0.0002683336946301467
sS'http://www.cc.gatech.edu/~adit262'
p2082
F0.0003397909517355731
sS'http://sectry.cc.gatech.edu/mmc.enter.fcgi'
p2083
F0.00032151056608267266
sS'http://www.cc.gatech.edu/events.html'
p2084
F0.00026969561758637486
sS'https://wiki.cc.gatech.edu/INC'
p2085
F0.0003412958190163069
sS'http://www.ce.gatech.edu/~nbaker'
p2086
F0.00026969561758637486
sS'http://home.cc.gatech.edu/ice-gt'
p2087
F0.00028562922747717287
sS'http://www.cc.gatech.edu/~mike'
p2088
F0.00038842648849257293
sS'http://www.registrar.gatech.edu/docs'
p2089
F0.00028702722812611677
sS'mailto:mgoodman@cc.gatech.edu'
p2090
F0.000273027506071963
sS'http://www.cc.gatech.edu/ambient'
p2091
F0.00031238697079012846
sS'http://www-static.cc.gatech.edu/grads'
p2092
F0.0004227618917778827
sS'http://www.cc.gatech.edu/~maya'
p2093
F0.0002906105653750771
sS'http://mikeb.inta.gatech.edu/courses'
p2094
F0.0003079789407016274
sS'http://egovision12.cc.gatech.edu/links.htm'
p2095
F0.0017819016689868228
sS'http://lcc.gatech.edu/compumedia'
p2096
F0.0003496939881494792
sS'http://svn.cc.gatech.edu'
p2097
F0.00027837919440421537
sS'http://guzdial.cc.gatech.edu/KiteSkiing.MOV'
p2098
F0.0002838342865392026
sS'mailto:preetesh@cc.gatech.edu'
p2099
F0.0002688699463692898
sS'http://cgi.cc.gatech.edu/cgi-bin'
p2100
F0.000284027494085921
sS'http://www.cc.gatech.edu/~amerritt'
p2101
F0.0002839810898696626
sS'http://mshci.gatech.edu/about'
p2102
F0.000273027506071963
sS'http://www.dilab.gatech.edu'
p2103
F0.00028793882133601396
sS'http://poloclub.gatech.edu'
p2104
F0.00044179222079157165
sS'http://www.cc.gatech.edu/~varunk'
p2105
F0.0002887134784152764
sS'mailto:maderer@gatech.edu'
p2106
F0.000273027506071963
sS'http://www.cc.gatech.edu/conchord'
p2107
F0.0002734271271689967
sS'https://oscar.gatech.edu'
p2108
F0.00028852161115163285
sS'http://www.cc.gatech.edu/~thermans'
p2109
F0.00046897481642335865
sS'mailto:tolek.lesniewski@arch.gatech.edu'
p2110
F0.00026969561758637486
sS'http://www.cc.gatech.edu/~quantt'
p2111
F0.00026969561758637486
sS'http://people.math.gatech.edu/~asafico'
p2112
F0.00028438232026380697
sS'http://swiki.cc.gatech.edu:8080/curator'
p2113
F0.00028231046587004146
sS'http://users.ece.gatech.edu/~darshan'
p2114
F0.00027450409976489384
sS'http://www.cc.gatech.edu/~quynh'
p2115
F0.00026969561758637486
sS'http://www.cc.gatech.edu/sofra'
p2116
F0.0003412958190163069
sS'http://www.cc.gatech.edu/~jiantao'
p2117
F0.0002839810898696626
sS'http://seal.gatech.edu/darpa'
p2118
F0.00027444441244828764
sS'http://gacomputes.cc.gatech.edu/yardi'
p2119
F0.0035743755873235764
sS'http://guzdial.cc.gatech.edu/st'
p2120
F0.00027108037159792765
sS'http://www.cc.gatech.edu/~naila'
p2121
F0.00034214589172031914
sS'http://www.aco.gatech.edu'
p2122
F0.0010135754974119808
sS'http://www.cc.gatech.edu/~junwei'
p2123
F0.0002839810898696626
sS'https://research.cc.gatech.edu/computing4fun'
p2124
F0.0003302674345981441
sS'http://www.cc.gatech.edu/ice'
p2125
F0.0005317609590327851
sS'http://www.nsf.gov/cgi-bin'
p2126
F0.000273027506071963
sS'http://wiki.cc.gatech.edu/c4g'
p2127
F0.0002683336946301467
sS' http://www.cc.gatech.edu/cpl'
p2128
F0.00026969561758637486
sS'http://www.cc.gatech.edu/ksi'
p2129
F0.0003412958190163069
sS'https://wiki.cc.gatech.edu/alignmentfree'
p2130
F0.0003412958190163069
sS'http://jupiter.cc.gatech.edu:10995/servlet'
p2131
F0.00027108037159792765
sS'http://wiki.cc.gatech.edu/pset'
p2132
F0.0002683336946301467
sS'http://www.chmsr.gatech.edu/people'
p2133
F0.00026969561758637486
sS'mailto:ychew@gatech.edu'
p2134
F0.0002697346593853361
sS'http://www.cc.gatech.edu/Curator'
p2135
F0.0006205638336056756
sS'http://www.ece.gatech.edu/research'
p2136
F0.0003216453021348729
sS'http://www.gtisc.gatech.edu/summit1007_webcast.html'
p2137
F0.000273027506071963
sS'http://www.cc.gatech.edu/can-itab'
p2138
F0.0003412958190163069
sS'http://childstudy.hsi.gatech.edu'
p2139
F0.0002980811974398193
sS'http://murmur.arch.gatech.edu/imagine'
p2140
F0.00026969561758637486
sS'mailto:rim-seminar-owner@mailman.cc.gatech.edu'
p2141
F0.00028713445888880774
sS'https://lists.cc.gatech.edu/mailman'
p2142
F0.00033359355646556257
sS'https://wiki.cc.gatech.edu/vtg'
p2143
F0.0003412958190163069
sS'http://smartech.gatech.edu:8282/dspace'
p2144
F0.00027108037159792765
sS'http://www.cc.gatech.edu/~dovrolis'
p2145
F0.0003244644712563412
sS'http://coweb.cc.gatech.edu/cs1050a'
p2146
F0.0002865440872662862
sS'http://www.cc.gatech.edu/~vroon'
p2147
F0.00027450409976489384
sS'http://gacomputes.cc.gatech.edu/accessibility-info?None&month:int=11&year:int=2014&orig_query=None'
p2148
F0.00034508170400424874
sS'http://www.gatech.edu/directories.php'
p2149
F0.0002893708631137324
sS'http://www.catalog.gatech.edu'
p2150
F0.0003118435741349413
sS'http://www.cc.gatech.edu/edTech2002'
p2151
F0.0002735769350290025
sS'http://www.cc.gatech.edu/~lsong'
p2152
F0.000597813993650877
sS'http://gacomputes.cc.gatech.edu/search_rss?Creator=guzdial&sort_on=Date&sort_order=reverse'
p2153
F0.00027843634996967625
sS'http://home.cc.gatech.edu/lana'
p2154
F0.00030362409671228803
sS'http://www.cc.gatech.edu/~abowd'
p2155
F0.0002783723162445501
sS'http://www.cc.gatech.edu/~wcai8'
p2156
F0.00032598738117285404
sS'http://www.career.gatech.edu'
p2157
F0.00038175800020361675
sS'http://gacomputes.cc.gatech.edu/accessibility-info?None&month:int=10&year:int=2014&orig_query=None'
p2158
F0.0004553988677657565
sS'http://www.cc.gatech.edu/~lingliu'
p2159
F0.0003813890609581841
sS'mailto:dagon@cc.gatech.edu'
p2160
F0.00027108037159792765
sS'http://www.promise.gatech.edu'
p2161
F0.00028121654709704165
sS'http://aci.gatech.edu'
p2162
F0.000273027506071963
sS'http://arc2.cc.gatech.edu/cluster.html'
p2163
F0.000288385047903782
sS'http://guzdial.cc.gatech.edu/squeakers'
p2164
F0.00027108037159792765
sS'mailto:schoner@cc.gatech.edu'
p2165
F0.00026969561758637486
sS'http://www.sab.cc.gatech.edu/index.php'
p2166
F0.00052375267542612
sS'mailto://hhamilton@gatech.edu'
p2167
F0.00030023034368653487
sS'http://www.gatech.edu/about'
p2168
F0.00030084260116600435
sS'http://www.news-info.gatech.edu/html'
p2169
F0.0002755377503357736
sS'http://www.cc.gatech.edu/cse-curriculum'
p2170
F0.0003222888489008458
sS'mailto:randy@cc.gatech.edu'
p2171
F0.00034026162609983345
sS'http://www.cc.gatech.edu/ice-dev'
p2172
F0.0002735769350290025
sS'http://www.cc.gatech.edu/~tomiller'
p2173
F0.00026969561758637486
sS'http://www.cc.gatech.edu/CloudAtCercs'
p2174
F0.00034293583051303795
sS'mailto:drupal-users@cc.gatech.edu'
p2175
F0.0003146297596478432
sS'mailto:amos@cc.gatech.edu'
p2176
F0.00026969561758637486
sS'http://home.cc.gatech.edu/schemesAni'
p2177
F0.00030020639438598277
sS'http://www.cercs.gatech.edu/iab11'
p2178
F0.0002751888510406943
sS'http://www.cc.gatech.edu/~craig'
p2179
F0.00028173289981191864
sS'http://www.cc.gatech.edu/GWNN'
p2180
F0.0003222888489008458
sS'http://www.cc.gatech.edu/~rehg'
p2181
F0.0007011375253745181
sS'http://www.cc.gatech.edu/~hkim368'
p2182
F0.00028173289981191864
sS'http://www.hsi.gatech.edu/onsitecenter'
p2183
F0.00028242014367132903
sS'mailto:phillipe.david@gatech.edu'
p2184
F0.00028472875542482625
sS'http://ic.gatech.edu'
p2185
F0.0004826007062722846
sS'http://www.cc.gatech.edu/~hkim362'
p2186
F0.00029476742054772585
sS'http://www.cseprograms.gatech.edu/distancelearning'
p2187
F0.00030297583666869616
sS'http://www.cc.gatech.edu/partnership'
p2188
F0.00033471558302637975
sS'http://www.cc.gatech.edu/~freeman'
p2189
F0.0002783723162445501
sS'http://www.cc.gatech.edu/~hodges'
p2190
F0.00026969561758637486
sS'http://www.cc.gatech.edu/lab-managers'
p2191
F0.00030240523711618254
sS'http://www.cc.gatech.edu/ic-service'
p2192
F0.0003412958190163069
sS'http://www.cc.gatech.edu/~aboldyre'
p2193
F0.0003899174951824634
sS'http://gacomputes.cc.gatech.edu/login_form'
p2194
F0.0035743755873235764
sS'http://crc.gatech.edu'
p2195
F0.0003282895392156999
sS'http://play.media.gatech.edu/s'
p2196
F0.00030040650976855373
sS'http://www.gvu.gatech.edu/gvu'
p2197
F0.000369958427614732
sS'http://gacomputes.cc.gatech.edu/contact-info?None&month:int=9&year:int=2014&orig_query=None'
p2198
F0.00030517482127935547
sS'http://www-static.cc.gatech.edu/systems'
p2199
F0.00037946451810060255
sS'http://www.gvu.gatech.edu/dart'
p2200
F0.00028562922747717287
sS'http://www.cc.gatech.edu/FilterEditor.asp?SavePage=1&SID=3353100&Rnd=0.5603999'
p2201
F0.0003351953744415918
sS'http://http://coe.gatech.edu'
p2202
F0.00030315471514621637
sS'http://gacomputes.cc.gatech.edu/search_form?None&month:int=10&year:int=2014&orig_query=None'
p2203
F0.0004553988677657565
sS'http://www.cc.gatech.edu/ECGrid'
p2204
F0.00028937086311373234
sS'http://www.cc.gatech.edu/~danav'
p2205
F0.00027108037159792765
sS'http://www.cc.gatech.edu/~goodman'
p2206
F0.0002783723162445501
sS'mailto:deana.brown@gatech.edu'
p2207
F0.0002697346593853361
sS'https://wiki.cc.gatech.edu/alumni'
p2208
F0.00031088466683156906
sS'mailto:suresh.menon@ae.gatech.edu'
p2209
F0.00026969561758637486
sS'http://www.cc.gatech.edu/~minjang'
p2210
F0.0002698833152670308
sS'https://research.cc.gatech.edu/CloudAtCercs'
p2211
F0.00027412197047255334
sS'mailto:arthur.fisk@psych.gatech.edu'
p2212
F0.00026969561758637486
sS'http://wiki.cc.gatech.edu/journalism'
p2213
F0.0002683336946301467
sS'http://exon.biology.gatech.edu'
p2214
F0.0002783723162445501
sS'http://home.cc.gatech.edu/mediacomp'
p2215
F0.0003392436221663633
sS'http://www.gvu.gatech.edu/datavis'
p2216
F0.00032291711963597293
sS'https://wiki.cc.gatech.edu/pag'
p2217
F0.0003412958190163069
sS'http://www.cbs.gatech.edu/index.php'
p2218
F0.0002903216299223185
sS'http://www.cc.gatech.edu/~zross'
p2219
F0.00027450409976489384
sS'http://www.bme.gatech.edu/groups'
p2220
F0.0003460088664020255
sS'http://www.cc.gatech.edu/~amrita'
p2221
F0.00028281283404565715
sS'http://www.cc.gatech.edu/~azakrzew'
p2222
F0.0002887134784152764
sS'http://usa.arch.gatech.edu/chuck'
p2223
F0.00026969561758637486
sS'http://www.sab.cc.gatech.edu/contact.php'
p2224
F0.00052375267542612
sS'http://dilab.gatech.edu/ccc'
p2225
F0.0003272807674771565
sS'http://web-science.cc.gatech.edu'
p2226
F0.0002783723162445501
sS'http://www-static.cc.gatech.edu/reverse'
p2227
F0.000271369406034766
sS'http://www.lcc.gatech.edu/%7Erauch'
p2228
F0.00026969561758637486
sS'http://disl.cc.gatech.edu/PageDigest'
p2229
F0.00027108037159792765
sS'mailto:thom@cc.gatech.edu'
p2230
F0.0002755377503357736
sS'mailto:levien.de.braal@cc.gatech.edu'
p2231
F0.00026969561758637486
sS'http://gacomputes.cc.gatech.edu/search_form?None&month:int=11&year:int=2014&orig_query=None'
p2232
F0.00034508170400424874
sS'http://www.cc.gatech.edu/~fatima'
p2233
F0.00029476742054772585
sS'https://lists.cc.gatech.edu'
p2234
F0.000282994571116784
sS'http://cyberbuzz.gatech.edu/esp'
p2235
F0.00028702722812611677
sS'http://www.cc.gatech.edu/%7Emihail'
p2236
F0.00029152577952016256
sS'http://www.cc.gatech.edu/advisor'
p2237
F0.0002697346593853361
sS'mailto:sandhya@gatech.edu'
p2238
F0.00028472875542482625
sS'http://www.cc.gatech.edu/~mishteva'
p2239
F0.0002783723162445501
sS'http://www.cc.gatech.edu/component'
p2240
F0.00359524641069083
sS'http://www.prism.gatech.edu/%7Erc7'
p2241
F0.0002783723162445501
sS'http://users.ece.gatech.edu/~amclaughlin7'
p2242
F0.0002887134784152764
sS'http://www-stage.gatech.edu/innovations'
p2243
F0.00028562922747717287
sS'http://borg.cc.gatech.edu'
p2244
F0.000349100502246612
sS'https://wiki.cc.gatech.edu/SOHOSec'
p2245
F0.0003412958190163069
sS'http://wiki.cc.gatech.edu/shapebank'
p2246
F0.0002683336946301467
sS'https://wiki.cc.gatech.edu/robotics'
p2247
F0.00033767544385760286
sS'http://www.crest.gatech.edu'
p2248
F0.0002698833152670308
sS'https://wiki.cc.gatech.edu/GSCGuide'
p2249
F0.0003412958190163069
sS'http://gacomputes.cc.gatech.edu/accessibility-info?None&month:int=1&year:int=2015&orig_query=None'
p2250
F0.00030517482127935547
sS'http://gacomputes.cc.gatech.edu/georgia-tech-announces-project-georgia-computes#portlet-navigation-t'
p2251
F0.0002652679385544622
sS'http://www.cc.gatech.edu/aardvark'
p2252
F0.0003412958190163069
sS'http://www.math.gatech.edu/academics'
p2253
F0.0002766970153064052
sS'http://www.cc.gatech.edu/mediacomp'
p2254
F0.00036138696531577284
sS'http://www.cc.gatech.edu/metro'
p2255
F0.0002838342865392026
sS'http://www.cercs.gatech.edu/iucrc.shtml'
p2256
F0.0002751888510406943
sS'http://wiki.cc.gatech.edu/EN'
p2257
F0.0002683336946301467
sS'http://egovision12.cc.gatech.edu/index.html'
p2258
F0.002034337727970041
sS'http://www.ece.gatech.edu/users'
p2259
F0.00028840876890157515
sS'mailto:kurt@cc.gatech.edu'
p2260
F0.00028772845854070097
sS'http://www.gatech.edu/newsroom'
p2261
F0.00036543704281826345
sS'http://home.cc.gatech.edu/kristin'
p2262
F0.00028562922747717287
sS'http://www.cc.gatech.edu/cpl'
p2263
F0.001041477308419608
sS'http://guzdial.cc.gatech.edu/BarbSurfing.MOV'
p2264
F0.0002838342865392026
sS'http://www.cc.gatech.edu/~karthe'
p2265
F0.00031388180225707063
sS'mailto:miles@cc.gatech.edu'
p2266
F0.00032607313129954846
sS'http://www.scs.gatech.edu/future'
p2267
F0.00031587986083756776
sS'http://www.arc.gatech.edu/abstractsfall2007'
p2268
F0.00029241581254696317
sS'http://www.cc.gatech.edu/manifold'
p2269
F0.00027412197047255334
sS'http://gacomputes.cc.gatech.edu/author?None&month:int=12&year:int=2014&orig_query=None#documentConte'
p2270
F0.0002652679385544622
sS'http://www.cc.gatech.edu/~lkdaley'
p2271
F0.00027569574831049626
sS'http://doi.acm.org.www.library.gatech.edu:2048/10.1145'
p2272
F0.0003034801394558158
sS'http://www2.isye.gatech.edu/~myuan'
p2273
F0.00027894673344271685
sS'http://wiki.cc.gatech.edu/iddat'
p2274
F0.0002683336946301467
sS'http://www.cc.gatech.edu/Z:'
p2275
F0.00033084479703184174
sS'http://wiki.cc.gatech.edu/graphs'
p2276
F0.0002683336946301467
sS'http://www-static.cc.gatech.edu/~turk'
p2277
F0.00029019511248799584
sS'http://gacomputes.cc.gatech.edu/mail_password_form?None&month:int=10&year:int=2014&orig_query=None#d'
p2278
F0.0002652679385544622
sS'http://www.cc.gatech.edu/pasqual'
p2279
F0.00035006509284232377
sS'http://fodava.gatech.edu'
p2280
F0.000490574746315318
sS'http://www.gvu.gatech.edu/labs'
p2281
F0.00030084260116600435
sS'http://programmingteam.cc.gatech.edu'
p2282
F0.00034697703581070666
sS'http://chi.gatech.edu'
p2283
F0.000273027506071963
sS'http://www.registrar.gatech.edu/calendar'
p2284
F0.0002688699463692898
sS'http://www.oit.gatech.edu'
p2285
F0.0003200679813406575
sS'http://www.cc.gatech.edu/~khai'
p2286
F0.00026969561758637486
sS'http://www.prism.gatech.edu/~gtg392y'
p2287
F0.00027108037159792765
sS'mailto:Tom Pilsch <pilsch@gatech.edu>'
p2288
F0.0003861692971600916
sS'http://www.cc.gatech.edu/TAJ'
p2289
F0.0003805999366029628
sS'http://www.cc.gatech.edu/faculty-view'
p2290
F0.00033471558302637975
sS'http://www.cc.gatech.edu/%7Erama'
p2291
F0.0003010035659932652
sS'http://www.bme.gatech.edu'
p2292
F0.000273027506071963
sS'ftp://ftp.cc.gatech.edu/pub'
p2293
F0.0004155449660935755
sS'http://chaos.resnet.gatech.edu:8000/~lex'
p2294
F0.0002894746179671243
sS'http://amplifier.gatech.edu'
p2295
F0.00029249637142642163
sS'http://www.cc.gatech.edu/~covingto'
p2296
F0.00030040718448569445
sS'http://www.gatech.edu/legal'
p2297
F0.0005039785622949668
sS'http://pace.gatech.edu/force-cluster'
p2298
F0.00030084260116600435
sS'mailto:gzhang3@gatech.edu'
p2299
F0.00027108037159792765
sS'http://gacomputes.cc.gatech.edu/contact-info'
p2300
F0.0035743755873235764
sS'http://gacomputes.cc.gatech.edu/accessibility-info?None&month:int=8&year:int=2014&orig_query=None'
p2301
F0.00027762025280298223
sS'mailto:guzdial@cc.gatech.edu'
p2302
F0.0006900737350571623
sS'http://www.cc.gatech.edu/%7Echris'
p2303
F0.0002698833152670308
sS'http://www.lcc.gatech.edu/catalog'
p2304
F0.00026969561758637486
sS'https://wiki.cc.gatech.edu/cellbuzz'
p2305
F0.0003730637041313771
sS'mailto:schwan@cc.gatech.edu'
p2306
F0.0002698833152670308
sS'http://www.gatech.edu/hpc'
p2307
F0.00026969561758637486
sS'http://www.gradadmiss.gatech.edu/apply'
p2308
F0.0003098699627351619
sS'http://www.cercs.gatech.edu/opencirrus'
p2309
F0.0002751888510406943
sS'www.gtisc.gatech.edu/'
p2310
F0.000273027506071963
sS'http://www.cc.gatech.edu/~jx'
p2311
F0.0002783723162445501
sS'mailto:liam@cc.gatech.edu'
p2312
F0.0005173543411994128
sS'http://www.cc.gatech.edu/~eisen'
p2313
F0.00033651411626744613
sS'http://www.cc.gatech.edu/~jp'
p2314
F0.00027550805062984026
sS'http://www.cc.gatech.edu/~zhangjj'
p2315
F0.0002688699463692898
sS'http://gtisc.cc.gatech.edu'
p2316
F0.0004924668856122632
sS'http://www.cc.gatech.edu/arc'
p2317
F0.0002741125084824956
sS'http://www.gtip.gatech.edu'
p2318
F0.0003118435741349413
sS'mailto:lab-managers@cc.gatech.edu'
p2319
F0.00030577572772975205
sS'http://www.cc.gatech.edu/ice-gt'
p2320
F0.000536723068369956
sS'http://cc.gatech.edu/~thermans'
p2321
F0.00030375731754556535
sS'http://www.cc.gatech.edu/%7Eaboldyre'
p2322
F0.0002741125084824956
sS'http://home.cc.gatech.edu/guzdial'
p2323
F0.0005221015031408006
sS'file://ftp.cc.gatech.edu//pub/coc/tech_reports/1994/GIT-CC-94-25.ps.'
p2324
F0.000271369406034766
sS'http://www.cc.gatech.edu/~minlee'
p2325
F0.0002839810898696626
sS'http://www.cc.gatech.edu/%7Elingliu'
p2326
F0.0002746823794127553
sS'http://www.cc.gatech.edu/~habbasi'
p2327
F0.00028859646658223114
sS'http://www.cc.gatech.edu/roboticshandbook'
p2328
F0.0003412958190163069
sS'http://www.cc.gatech.edu/~ling\nliu'
p2329
F0.0002688699463692898
sS'http://users.ece.gatech.edu/~iwalker3'
p2330
F0.0002887134784152764
sS'http://www-static.cc.gatech.edu/~axa'
p2331
F0.0006728786570801325
sS'http://www.cc.gatech.edu/~ganev'
p2332
F0.00028859646658223114
sS'http://www.cc.gatech.edu/compiler'
p2333
F0.00038175800020361675
sS'mailto:manojh3@gatech.edu'
p2334
F0.000288671811643115
sS'http://www.cc.gatech.edu/aaccd'
p2335
F0.0002735769350290025
sS'http://www-static.cc.gatech.edu/~beki'
p2336
F0.00027832946843326154
sS'http://www.cc.gatech.edu/~younah'
p2337
F0.00032866475627617064
sS'http://triton.cc.gatech.edu'
p2338
F0.00027837919440421537
sS'http://www.cc.gatech.edu/~mudhakar'
p2339
F0.00027108037159792765
sS'http://cc.gatech.edu/events'
p2340
F0.0005993588551866381
sS'http://coweb.cc.gatech.edu/mediaComp-teach#Python'
p2341
F0.00028562922747717287
sS'https://research.cc.gatech.edu/drupal'
p2342
F0.00029184088119127373
sS'http://www.cercs.gatech.edu/people.shtml'
p2343
F0.0002751888510406943
sS'http://www.cc.gatech.edu/~afathi3'
p2344
F0.00032598738117285404
sS'http://sc11.gatech.edu'
p2345
F0.00029476742054772585
sS'http://www.cc.gatech.edu/~asb'
p2346
F0.00045806954434984517
sS'http://www.cc.gatech.edu/~saluru'
p2347
F0.0002783723162445501
sS'http://www.cc.gatech.edu/%7Eqzhao'
p2348
F0.00033084479703184174
sS'http://www.cc.gatech.edu/~richie'
p2349
F0.0002783723162445501
sS'http://gacomputes.cc.gatech.edu/accessibility-info?None&month:int=12&year:int=2014&orig_query=None'
p2350
F0.0004553988677657565
sS'http://www.cc.gatech.edu/~vijayab'
p2351
F0.000288671811643115
sS'mailto:SRobinson@gatech.edu'
p2352
F0.00026969561758637486
sS'http://wiki.cc.gatech.edu/tso-research'
p2353
F0.0002943130040113566
sS'http://www.cc.gatech.edu/chi2010'
p2354
F0.0003412958190163069
sS'http://sigmaxi.gatech.edu'
p2355
F0.00028027767304898894
sS'http://www.cc.gatech.edu/~ninamf'
p2356
F0.00042011277204653135
sS'http://www.cc.gatech.edu/~dfisher'
p2357
F0.00027450409976489384
sS'http://www.cc.gatech.edu/~skrehbie'
p2358
F0.00028438232026380697
sS'mailto:mediacomp-teach-owner@cc.gatech.edu'
p2359
F0.00028713445888880774
sS'http://www.cc.gatech.edu/uart'
p2360
F0.00027412197047255334
sS'http://www.cc.gatech.edu/secure'
p2361
F0.000283306740565882
sS'https://wiki.cc.gatech.edu/dtn'
p2362
F0.0003344057924092021
sS'http://www.cc.gatech.edu/streetgrace'
p2363
F0.00027412197047255334
sS'https://wiki.cc.gatech.edu/hpc'
p2364
F0.00028281283404565715
sS'http://cseprograms.gatech.edu'
p2365
F0.000273027506071963
sS'http://www.gtcmt.gatech.edu'
p2366
F0.000273027506071963
sS'mailto:anandm@cc.gatech.edu'
p2367
F0.00028472875542482625
sS'http://www.gatech.edu/contact'
p2368
F0.000273027506071963
sS'http://ipat.gatech.edu'
p2369
F0.00042328963294944945
sS'http://www.gatech.edu/gtsecuritysymposium'
p2370
F0.00032365321593827917
sS'http://www.math.gatech.edu/~heitsch'
p2371
F0.0002741125084824956
sS'http://www.cc.gatech.edu/appwiki'
p2372
F0.0003412958190163069
sS'http://www.cc.gatech.edu/~ksubrama'
p2373
F0.0002965722371259038
sS'mailto:klipp@gatech.edu'
p2374
F0.000273027506071963
sS'http://www.cc.gatech.edu/~joyfull'
p2375
F0.00038477572930839044
sS'http://status.oit.gatech.edu/rss?feed=public&formatted=true&services=omscs'
p2376
F0.00027692617226696077
sS'http://www.math.gatech.edu/seminars-colloquia'
p2377
F0.00028438232026380697
sS'http://www.cc.gatech.edu/~peterd'
p2378
F0.00027450409976489384
sS'http://www2.isye.gatech.edu/~xiaoming'
p2379
F0.00027894673344271685
sS'http://www.sic.gatech.edu/future'
p2380
F0.0003385504992802383
sS'http://gacomputes.cc.gatech.edu/mail_password_form'
p2381
F0.0032907028415629608
sS'http://www2.isye.gatech.edu/~cguzman6'
p2382
F0.00032504200995724867
sS'http://www.gtisc.gatech.edu/identmgmt0506.html'
p2383
F0.00034026162609983345
sS'http://robotics.gatech.edu/outreach'
p2384
F0.000273027506071963
sS'http://idt.gatech.edu'
p2385
F0.000273027506071963
sS'http://www.library.gatech.edu/search'
p2386
F0.0003084852448230771
sS'http://www.gvu.gatech.edu/news'
p2387
F0.00031212261298017955
sS'https://wiki.cc.gatech.edu/ClimateSE'
p2388
F0.0003412958190163069
sS'http://www.cc.gatech.edu/systems-lab'
p2389
F0.0003412958190163069
sS'http://www.cc.gatech.edu/incomingphd'
p2390
F0.00028600281504405627
sS'http://www.cc.gatech.edu/tso'
p2391
F0.00031665974471441416
sS'http://www.cc.gatech.edu/%7Ezhangjj'
p2392
F0.00027108037159792765
sS'mailto:linda@cc.gatech.edu'
p2393
F0.000284027494085921
sS'http://www.gtri.gatech.edu/eoeml1.html'
p2394
F0.00026969561758637486
sS'http://wiki.cc.gatech.edu/epl'
p2395
F0.0004123458709491441
sS'http://www.cc.gatech.edu/vocabulary'
p2396
F0.00028615793539860985
sS'http://www.cc.gatech.edu/systems-studio'
p2397
F0.0003412958190163069
sS'http://www.cc.gatech.edu/~brubaker'
p2398
F0.00029614461542128276
sS'http://www.prism.gatech.edu/~gt7616c'
p2399
F0.00026969561758637486
sS'http://www.cc.gatech.edu/aimosaic'
p2400
F0.0012352708078451652
sS'http://www.cc.gatech.edu/~skannan9'
p2401
F0.0003397909517355731
sS'http://www.oie.gatech.edu/isss'
p2402
F0.0003035477105352512
sS'http://springerlink.metapress.com.www.library.gatech.edu:2048/content'
p2403
F0.00027108037159792765
sS'http://resonance.noise.gatech.edu'
p2404
F0.0003131625317246492
sS'http://ceetherm.gatech.edu/drupal'
p2405
F0.0002751031774828975
sS'http://gacomputes.cc.gatech.edu/yardi#documentContent'
p2406
F0.0004290789606729221
sS'http://www.cc.gatech.edu/dtn'
p2407
F0.0003344057924092021
sS'http://www-static.cc.gatech.edu/~mcdoo'
p2408
F0.0002688699463692898
sS'mailto:cunninj@cc.gatech.edu'
p2409
F0.00028472875542482625
sS'mailto:dynamo-support@cc.gatech.edu'
p2410
F0.00032274136829497593
sS'http://www.cc.gatech.edu/~saho'
p2411
F0.00026969561758637486
sS'http://www.cc.gatech.edu/~chris'
p2412
F0.00027569574831049626
sS'http://www.cc.gatech.edu/%7Ewcai8'
p2413
F0.0003104509625904847
sS'http://www.cc.gatech.edu/classes'
p2414
F0.001352844881249988
sS'http://www.cc.gatech.edu/~bigpeteb'
p2415
F0.000292646942251053
sS'http://www.cc.gatech.edu/prism'
p2416
F0.0002734271271689967
sS'http://urop.gatech.edu'
p2417
F0.00041040282605223137
sS'http://www.ic.gatech.edu'
p2418
F0.0023180314222591
sS'mailto:asb@cc.gatech.edu'
p2419
F0.00027108037159792765
sS'http://www-static.cc.gatech.edu/~yztang'
p2420
F0.0002688699463692898
sS'http://gacomputes.cc.gatech.edu/search?Creator=bjordin&sort_on=Date&sort_order=reverse#documentConte'
p2421
F0.0002652679385544622
sS'http://cpl.cc.gatech.edu'
p2422
F0.0003629276859990964
sS'http://hccedl.cc.gatech.edu'
p2423
F0.0002697346593853361
sS'http://guzdial.cc.gatech.edu/cscl99'
p2424
F0.0002894746179671243
sS'http://www.ece.gatech.edu/profiles'
p2425
F0.00026969561758637486
sS'mailto:drupal-users-owner@cc.gatech.edu'
p2426
F0.00030577572772975205
sS'mailto:cantrell@gatech.edu'
p2427
F0.0002697346593853361
sS'mailto:david.terraso@comm.gatech.edu'
p2428
F0.000273027506071963
sS'mailto:kacb-students-owner@mailman.cc.gatech.edu'
p2429
F0.00028713445888880774
sS'http://www.cc.gatech.edu/%7Esantosh'
p2430
F0.0002698833152670308
sS'http://www.cc.gatech.edu/~lvegh'
p2431
F0.0002766970153064052
sS'http://www-static.cc.gatech.edu/gvu'
p2432
F0.0002783723162445501
sS'http://www.cc.gatech.edu/~pmw'
p2433
F0.0002698833152670308
sS'http://clic.gatech.edu'
p2434
F0.0003460356456304604
sS' http://www.cc.gatech.edu/sites'
p2435
F0.00028702722812611677
sS'http://www.cc.gatech.edu/reverse'
p2436
F0.0004855414350034929
sS'http://www.admission.gatech.edu/freshman'
p2437
F0.00028121654709704165
sS'http://digitallounge.gatech.edu/entertainmentandmusic'
p2438
F0.0002794411505416428
sS'mailto:juan.rogers@pubpolicy.gatech.edu'
p2439
F0.00026969561758637486
sS'http://www.cc.gatech.edu/~vibhore'
p2440
F0.00029886627836354256
sS'mailto:alan.rauch@lcc.gatech.edu'
p2441
F0.00026969561758637486
sS'http://swiki.cc.gatech.edu:8888/uploads'
p2442
F0.0003113516019193234
sS'https://wiki.cc.gatech.edu/uroc'
p2443
F0.00031088466683156906
sS'http://dilab.gatech.edu/clc'
p2444
F0.00033538099867594
sS'http://www.cc.gatech.edu/~eaganj'
p2445
F0.00026969561758637486
sS'http://C2000.cc.gatech.edu/db'
p2446
F0.000292646942251053
sS'http://wiki.cc.gatech.edu/finishing'
p2447
F0.0002683336946301467
sS'http://www.cc.gatech.edu/get-involved'
p2448
F0.00031615827379363146
sS'http://gacomputes.cc.gatech.edu/mail_password_form#portlet-navigation-tree'
p2449
F0.0004109205365328011
sS'http://www.awarehome.gatech.edu'
p2450
F0.00045011341087215545
sS'http://www.biology.gatech.edu/bioinformatics'
p2451
F0.00028121654709704165
sS'http://www.cercs.gatech.edu/iucrc07'
p2452
F0.0002751888510406943
sS'http://www.cc.gatech.edu/~giffin'
p2453
F0.0002698833152670308
sS'http://www.cercs.gatech.edu/iucrc09'
p2454
F0.0002751888510406943
sS'http://www.cercs.gatech.edu/iucrc08'
p2455
F0.0002751888510406943
sS'http://www.arc.gatech.edu'
p2456
F0.0004399509166719657
sS'http://www.cc.gatech.edu/publications'
p2457
F0.00030023034368653487
sS'http://www.finaid.gatech.edu/graduate'
p2458
F0.00038595990226464164
sS'acliffor@cc.gatech.edu'
p2459
F0.00027444441244828764
sS'http://gacomputes.cc.gatech.edu/mail_password_form?None&month:int=11&year:int=2014&orig_query=None'
p2460
F0.00033993516085578044
sS'http://www.lcc.gatech.edu/%7Emurray'
p2461
F0.00026969561758637486
sS'http://www.robotics.gatech.edu/newsroom'
p2462
F0.000273027506071963
sS'http://www.cc.gatech.edu/industry'
p2463
F0.0003197972603738653
sS'http://www-static.cc.gatech.edu/~rama'
p2464
F0.0003363353155904419
sS'http://www.cc.gatech.edu/EN'
p2465
F0.0003412958190163069
sS'http://www.cc.gatech.edu/~caverlee'
p2466
F0.00027108037159792765
sS'https://wiki.cc.gatech.edu/apparch'
p2467
F0.0003412958190163069
sS'http://wiki.cc.gatech.edu/facilities'
p2468
F0.0002683336946301467
sS'http://www.cc.gatech.edu/%7Ereveret'
p2469
F0.00026969561758637486
sS'mailto:ellen.strain@lcc.gatech.edu'
p2470
F0.00026969561758637486
sS'http://www.cse.gatech.edu/people'
p2471
F0.0006590319295149091
sS'http://www.lcc.gatech.edu/~murray'
p2472
F0.00030527028019791696
sS'http://www.cc.gatech.edu/cmgardne'
p2473
F0.0003047451490579885
sS'http://www.cc.gatech.edu/csela'
p2474
F0.00027412197047255334
sS'http://www.cc.gatech.edu/engage'
p2475
F0.0006406690052579424
sS'http://wiki.cc.gatech.edu/AHRI'
p2476
F0.0002683336946301467
sS'http://www.gatech.edu'
p2477
F0.01175818735176464
sS'http://www.sab.cc.gatech.edu/news_archives.php'
p2478
F0.00052375267542612
sS'http://users.ece.gatech.edu/lccr3'
p2479
F0.0002965722371259038
sS'http://www.sab.cc.gatech.edu/admin'
p2480
F0.00052375267542612
sS'http://www.cc.gatech.edu/~arriaga'
p2481
F0.0004218374899023119
sS'http://www.cc.gatech.edu/~potts'
p2482
F0.0002783723162445501
sS'http://www.cc.gatech.edu/~cmappus'
p2483
F0.0002965722371259038
sS'mailto:stasko@cc.gatech.edu'
p2484
F0.0002970746212829656
sS'mailto:jlk@cc.gatech.edu'
p2485
F0.00027108037159792765
sS'http://support.cc.gatech.edu/inside-tso'
p2486
F0.0003481943881487504
sS'http://gacomputes.cc.gatech.edu/sitemap?None&month:int=10&year:int=2014&orig_query=None'
p2487
F0.0004466070971590132
sS'http://coweb.cc.gatech.edu'
p2488
F0.0003030339877431185
sS'http://www.cc.gatech.edu/~isbell'
p2489
F0.0007354921663932567
sS'mailto:jiao@cc.gatech.edu'
p2490
F0.0003383781683070153
sS'http://www.arc.gatech.edu/events'
p2491
F0.0002819104837821112
sS'mailto:karen.milchus@arch.gatech.edu'
p2492
F0.00026969561758637486
sS'http://www.ece.gatech.edu'
p2493
F0.0002854289631160723
sS'http://www.sab.cc.gatech.edu/about.php'
p2494
F0.00052375267542612
sS'http://chrome.skiles.gatech.edu/idt'
p2495
F0.00026969561758637486
sS'http://gacomputes.cc.gatech.edu/contact-info?None&month:int=12&year:int=2014&orig_query=None#portlet'
p2496
F0.0002652679385544622
sS'http://www.cc.gatech.edu/~dbent'
p2497
F0.00026969561758637486
sS'http://www.ccl.cc.gatech.edu'
p2498
F0.00039991424765022245
sS'mailto:randy.carpenter@cc.gatech.edu'
p2499
F0.00026969561758637486
sS'http://www.cc.gatech.edu/~hadi'
p2500
F0.0003817697764923258
sS'mailto:zahid@cc.gatech.edu'
p2501
F0.0002755377503357736
sS'http://gacomputes.cc.gatech.edu/contact-info?None&month:int=12&year:int=2014&orig_query=None'
p2502
F0.0004553988677657565
sS'http://wiki.cc.gatech.edu/ubicomp'
p2503
F0.0002683336946301467
sS'http://www.catalog.gatech.edu/students'
p2504
F0.00036261035761901055
sS'https://wiki.cc.gatech.edu/vms'
p2505
F0.0003412958190163069
sS'http://www.cc.gatech.edu/~subbiahs'
p2506
F0.000292646942251053
sS'http://blis.cc.gatech.edu'
p2507
F0.00029614461542128276
sS'http://www.cc.gatech.edu/intranet'
p2508
F0.003645914200517099
sS'http://www.prism.gatech.edu/%7Egtg470c'
p2509
F0.00027108037159792765
sS'https://wiki.cc.gatech.edu/CERCS-infra'
p2510
F0.0003412958190163069
sS'mailto:jgonzales8@gatech.edu'
p2511
F0.0002697346593853361
sS'https://wiki.cc.gatech.edu/awl'
p2512
F0.0003412958190163069
sS'mailto:mdye@gatech.edu'
p2513
F0.0002697346593853361
sS'http://www.msrec.gatech.edu'
p2514
F0.0002989363014996981
sS'http://www.cc.gatech.edu/scqualifier'
p2515
F0.0003412958190163069
sS'http://www.cc.gatech.edu/~amyvoida'
p2516
F0.00026969561758637486
sS'mailto:jay.bolter@lcc.gatech.edu'
p2517
F0.00026969561758637486
sS'https://cgi3.cc.gatech.edu/servlets'
p2518
F0.00027108037159792765
sS'mailto:kacb-staff@mailman.cc.gatech.edu'
p2519
F0.00028713445888880774
sS'http://guzdial.cc.gatech.edu/steam-around.MOV'
p2520
F0.0002838342865392026
sS'http://www.pace.gatech.edu/force-cluster'
p2521
F0.0002690648584137492
sS'http://gacomputes.cc.gatech.edu/publications'
p2522
F0.0032907028415629608
sS'http://guzdial.cc.gatech.edu/squeakbook'
p2523
F0.00044732470425803836
sS'http://comparch.gatech.edu/hparch'
p2524
F0.0003315155520890668
sS'http://tinker.cc.gatech.edu'
p2525
F0.00031833656583077753
sS'http://www.cc.gatech.edu/~jasmina'
p2526
F0.00027569574831049626
sS'https://wiki.cc.gatech.edu/topicmodels'
p2527
F0.0003412958190163069
sS'http://www2.imtc.gatech.edu/maribeth'
p2528
F0.00026969561758637486
sS'http://www.cc.gatech.edu/~zyin9'
p2529
F0.0002887134784152764
sS'http://wiki.cc.gatech.edu/appwiki'
p2530
F0.0002683336946301467
sS'http://users.ece.gatech.edu/mooney'
p2531
F0.0002783723162445501
sS'mailto:seif@cc.gatech.edu'
p2532
F0.0002698833152670308
sS'http://www.cc.gatech.edu/~amoneill'
p2533
F0.00029392135419258243
sS'http://www.cc.gatech.edu/remoterepair'
p2534
F0.0003412958190163069
sS'http://home.cc.gatech.edu/TeaParty'
p2535
F0.0003985524111770569
sS'http://www.cc.gatech.edu/%7Eerika'
p2536
F0.00030362409671228803
sS'http://gacomputes.cc.gatech.edu/search?Creator=alexr&sort_on=Date&sort_order=reverse'
p2537
F0.0003098449729747778
sS'http://c2000.cc.gatech.edu/zenpad'
p2538
F0.000292646942251053
sS'mailto:mwolf@cc.gatech.edu'
p2539
F0.00031262426839409336
sS'http://www.cc.gatech.edu/facilities'
p2540
F0.000493559801839727
sS'http://www.cc.gatech.edu/~jhuang6'
p2541
F0.0002839810898696626
sS'mailto:mterraza@cc.gatech.edu'
p2542
F0.000273027506071963
sS'http://www.cc.gatech.edu/~beth'
p2543
F0.0002839810898696626
sS'http://www.cc.gatech.edu/~rpienta3'
p2544
F0.00028027767304898894
sS'http://www.cc.gatech.edu/~ztcai'
p2545
F0.00028859646658223114
sS'http://www.cc.gatech.edu/disl'
p2546
F0.00028937086311373234
sS'mailto:gte793m@mail.gatech.edu'
p2547
F0.0002688699463692898
sS'mailto:amanparnami@gatech.edu'
p2548
F0.0002697346593853361
sS'https://wiki.cc.gatech.edu/sensor-lab'
p2549
F0.0003133497572525814
sS'mailto:spencer@cc.gatech.edu'
p2550
F0.00036054503405770564
sS'http://heron.ae.gatech.edu/ccl'
p2551
F0.00026969561758637486
sS'http://home.cc.gatech.edu/hrichter'
p2552
F0.00047144412620922987
sS'http://www.cc.gatech.edu/lijun'
p2553
F0.00033022924727045295
sS'http://sab.cc.gatech.edu'
p2554
F0.00028702722812611677
sS'http://www.cc.gatech.edu/grads'
p2555
F0.0017439933069283127
sS'http://www.cc.gatech.edu/drupal'
p2556
F0.00029184088119127373
sS'gopher://acme.gatech.edu:79/0'
p2557
F0.000284027494085921
sS'http://www.cc.gatech.edu/sting'
p2558
F0.0003412958190163069
sS'http://gacomputes.cc.gatech.edu/publications#documentContent'
p2559
F0.0004177586866771421
sS'http://www.cc.gatech.edu/~monsoon'
p2560
F0.00026969561758637486
sS'http://robotics.gatech.edu/education'
p2561
F0.000273027506071963
sS'http://www.gvu.gatech.edu/brownbags.php'
p2562
F0.0002822432808137772
sS'http://www.cc.gatech.edu/MissionLab'
p2563
F0.0003412958190163069
sS'http://www.cc.gatech.edu/content'
p2564
F0.0052077909550983245
sS'http://www.cc.gatech.edu/about'
p2565
F0.0027204153600513137
sS'http://www.cc.gatech.edu/contact-us'
p2566
F0.0002819104837821112
sS'http://www.cc.gatech.edu/threads'
p2567
F0.0002735769350290025
sS'mailto:jiangf@cc.gatech.edu'
p2568
F0.00026969561758637486
sS'http://www.cc.gatech.edu/CERCSPoster'
p2569
F0.0003412958190163069
sS'http://coe.gatech.edu'
p2570
F0.000273027506071963
sS'https://wiki.cc.gatech.edu/lab-managers'
p2571
F0.0003024052371161825
sS'http://www.cc.gatech.edu/~rockdj'
p2572
F0.00027108037159792765
sS'http://www.flamel.gatech.edu/FLAMEL'
p2573
F0.00030338494896722676
sS'http://eclass.cc.gatech.edu/zenpad'
p2574
F0.00030096608129940856
sS'http://wiki.cc.gatech.edu/topicmodels'
p2575
F0.0002683336946301467
sS'http://swiki.cc.gatech.edu:8080/vwlab'
p2576
F0.00032291711963597293
sS'http://gacomputes.cc.gatech.edu/sitemap?None&month:int=12&year:int=2014&orig_query=None#documentCont'
p2577
F0.0002652679385544622
sS'http://collab.cc.gatech.edu/humanoids'
p2578
F0.0009207383143554393
sS'http://www.cc.gatech.edu/~sasha'
p2579
F0.0003256991818680165
sS'http://poloclub.gatech.edu/bgm2014'
p2580
F0.00028027767304898894
sS'mailto:fauzla@cc.gatech.edu'
p2581
F0.0005095728805023523
sS'http://www.cc.gatech.edu/business'
p2582
F0.0002838342865392026
sS'http://www.gradadmiss.gatech.edu/orientation'
p2583
F0.0003035477105352512
sS'http://gacomputes.cc.gatech.edu/author?None&month:int=2&year:int=2015&orig_query=None'
p2584
F0.0002774239442851912
sS'https://wiki.cc.gatech.edu/lbd'
p2585
F0.0003412958190163069
sS'http://uav.ae.gatech.edu'
p2586
F0.000273027506071963
sS'mailto:rucheek@cc.gatech.edu'
p2587
F0.00028472875542482625
sS'http://webscience.cc.gatech.edu'
p2588
F0.000478967858683904
sS'http://www.rim.gatech.edu'
p2589
F0.00044514793047883326
sS'http://users.ece.gatech.edu/~dblough'
p2590
F0.0002698833152670308
sS'mailto:mdye@cc.gatech.edu'
p2591
F0.000273027506071963
sS'http://www.cercs.gatech.edu/vee15'
p2592
F0.0003210778004203727
sS'https://wiki.cc.gatech.edu/uarch'
p2593
F0.00037930975924722936
sS'http://www.cc.gatech.edu/~aparna'
p2594
F0.0003062583739064713
sS'mailto:rossp@cc.gatech.edu'
p2595
F0.0002698833152670308
sS'http://guzdial.cc.gatech.edu/extras'
p2596
F0.0002894746179671243
sS'http://www.cc.gatech.edu/~kingd'
p2597
F0.00026969561758637486
sS'http://www.cc.gatech.edu/garment'
p2598
F0.0003412958190163069
sS'http://home.cc.gatech.edu/dorn'
p2599
F0.0003270600304550856
sS'http://www.ien.gatech.edu'
p2600
F0.0002751031774828975
sS'https://wiki.cc.gatech.edu/gvu-proposals'
p2601
F0.0003412958190163069
sS'mailto:frank@cc.gatech.edu'
p2602
F0.00026969561758637486
sS'http://www.cc.gatech.edu/%7elxiong'
p2603
F0.00027108037159792765
sS'http://www.cc.gatech.edu/iddat'
p2604
F0.0003412958190163069
sS'http://www.cc.gatech.edu/~jdayal3'
p2605
F0.0002839810898696626
sS'http://omscs.gatech.edu'
p2606
F0.00034819310797813707
sS'http://www.cc.gatech.edu/~riley'
p2607
F0.0002755377503357736
sS'https://research.cc.gatech.edu/aifun'
p2608
F0.0003355544211880699
sS'http://www.cc.gatech.edu/~jjones'
p2609
F0.00027450409976489384
sS'mailto:jean.wineman@arch.gatech.edu'
p2610
F0.00026969561758637486
sS'http://wiki.cc.gatech.edu/uarch'
p2611
F0.0002683336946301467
sS'http://www-static.cc.gatech.edu/%7Eaboldyre'
p2612
F0.0003020934799362663
sS'http://www.cc.gatech.edu/alignmentfree'
p2613
F0.0003412958190163069
sS'http://www.cc.gatech.edu/~mark.guzdial'
p2614
F0.0009173960125278482
sS'http://home.cc.gatech.edu'
p2615
F0.00027837919440421537
sS'http://www.cc.gatech.edu/sigcse09'
p2616
F0.0002735769350290025
sS'MAILTO:shawj@cc.gatech.edu'
p2617
F0.0007237504903713679
sS'http://t-square.gatech.edu'
p2618
F0.00031799904874734125
sS'http://www.cc.gatech.edu/~sandip'
p2619
F0.00028859646658223114
sS'http://cse.gatech.edu'
p2620
F0.0002954880260582017
sS'http://www.finaid.gatech.edu/apply'
p2621
F0.00028121654709704165
sS'mailto:jennifer.whitlow@gatech.edu?subject=IOS: Contact from homepage'
p2622
F0.00027108037159792765
sS'mailto:renata@ipat.gatech.edu'
p2623
F0.00030338494896722676
sS'mailto:robotics-fac-owner@cc.gatech.edu'
p2624
F0.00028713445888880774
sS'https://wiki.cc.gatech.edu/hparch'
p2625
F0.0003412958190163069
sS'mailto:wr43@prism.gatech.edu'
p2626
F0.00026969561758637486
sS'http://www.cc.gatech.edu/remrem'
p2627
F0.0003412958190163069
sS'mailto:lastname@gatech.edu'
p2628
F0.00032267420924196496
sS'http://www.cc.gatech.edu/crg'
p2629
F0.0003412958190163069
sS'http://www.cc.gatech.edu/designcomp'
p2630
F0.00029659335565850964
sS'mailto:nsp@cc.gatech.edu'
p2631
F0.00026969561758637486
sS'https://wiki.cc.gatech.edu/iddat'
p2632
F0.0003412958190163069
sS'mailto:terry.harpold@lcc.gatech.edu'
p2633
F0.00026969561758637486
sS'http://disl.cc.gatech.edu/XWRAPComposer'
p2634
F0.00027108037159792765
sS'http://drupal.gatech.edu/handbook'
p2635
F0.00028298684927318253
sS'http://www.iai.gatech.edu/people.html'
p2636
F0.00038251742841223496
sS'http://www.cc.gatech.edu/net'
p2637
F0.00034655714425854017
sS'https://wiki.cc.gatech.edu/cvpr09-org'
p2638
F0.0003412958190163069
sS'http://www.cc.gatech.edu/~chadh'
p2639
F0.0002876084774549817
sS'http://www.cc.gatech.edu/ccg'
p2640
F0.0012608329967308393
sS'mailto:jkirkbri@cc.gatech.edu'
p2641
F0.00030338494896722676
sS'http://www.cercs.gatech.edu/iucrc10'
p2642
F0.0002751888510406943
sS'http://www.cercs.gatech.edu/iucrc11'
p2643
F0.0002751888510406943
sS'http://www.cercs.gatech.edu/iucrc13'
p2644
F0.0002751888510406943
sS'http://www.cc.gatech.edu/%7Ewolenetz'
p2645
F0.0003010035659932652
sS'http://www.gvu.gatech.edu/virtual'
p2646
F0.0004601568960803223
sS'http://www.gvu.gatech.edu/~jarek'
p2647
F0.00037276987273891104
sS'http://wiki.cc.gatech.edu/ClimateSE'
p2648
F0.0002683336946301467
sS'https://wiki.cc.gatech.edu/remrem'
p2649
F0.0003412958190163069
sS'http://www.biology.gatech.edu/gt_bioinfo'
p2650
F0.0002887134784152764
sS'http://cc.gatech.edu/~clever3'
p2651
F0.0002882732983886104
sS'http://www.parking.gatech.edu'
p2652
F0.0003035477105352512
sS'http://www.cc.gatech.edu/~Mostafa.Ammar'
p2653
F0.00028772845854070097
sS'http://www.cc.gatech.edu/~hpark'
p2654
F0.0003362922595201009
sS'mailto:akmassey@gatech.edu'
p2655
F0.00032365321593827917
sS'http://www.cc.gatech.edu/cohort'
p2656
F0.0002697346593853361
sS'http://wiki.cc.gatech.edu/lbd'
p2657
F0.0002683336946301467
s.