(dp0
S'http://www.sab.cc.gatech.edu/officers.php'
p1
S'http://www.sab.cc.gatech.edu/sab08constitution.pdf'
p2
sS'https://mailman.cc.gatech.edu/mailman'
p3
S'mailto:uroc-announce@mailman.cc.gatech.edu'
p4
sS'http://www-static.cc.gatech.edu/grads'
p5
S'http://www.cc.gatech.edu/~schwan'
p6
sS'http://wiki.cc.gatech.edu/hplab'
p7
S'https://wiki.cc.gatech.edu/hplab'
p8
sS'http://gacomputes.cc.gatech.edu/sitemap?None&month:int=11&year:int=2014&orig_query=None'
p9
S'http://www.gatech.edu'
p10
sS'https://wiki.cc.gatech.edu/gvu'
p11
g11
sS'http://wiki.cc.gatech.edu/si-machines'
p12
S'https://wiki.cc.gatech.edu/si-machines'
p13
sS'http://www.cc.gatech.edu/fce'
p14
S'mailto:dnguyen@cc.gatech.edu'
p15
sS'http://wiki.cc.gatech.edu/elba'
p16
S'https://wiki.cc.gatech.edu/elba'
p17
sS'http://home.cc.gatech.edu/gacomputes'
p18
S'mailto:fauzla@cc.gatech.edu'
p19
sS'http://www.cc.gatech.edu/ectropic'
p20
S'mailto:spencer@cc.gatech.edu'
p21
sS'http://support.cc.gatech.edu/resources'
p22
S'https://t-square.gatech.edu'
p23
sS'http://gacomputes.cc.gatech.edu/search_form?None&month:int=9&year:int=2014&orig_query=None'
p24
g10
sS'http://www.cc.gatech.edu/~bdilkina'
p25
S'http://www.prism.gatech.edu/~ssg6'
p26
sS'http://www.cc.gatech.edu/~mromero'
p27
S'http://www.prism.gatech.edu/~dquigley7'
p28
sS'http://gacomputes.cc.gatech.edu/search?Creator=bjordin&sort_on=Date&sort_order=reverse#portlet-navig'
p29
g10
sS'http://gacomputes.cc.gatech.edu/projects#portlet-navigation-tree'
p30
g10
sS'http://www.cc.gatech.edu/research'
p31
g3
sS'https://research.cc.gatech.edu/HyVM'
p32
g10
sS'http://wiki.cc.gatech.edu/activities'
p33
S'https://wiki.cc.gatech.edu/activities'
p34
sS'http://gacomputes.cc.gatech.edu/search?Creator=steven&sort_on=Date&sort_order=reverse'
p35
g10
sS'http://wiki.cc.gatech.edu/webscience'
p36
S'https://wiki.cc.gatech.edu/webscience'
p37
sS'http://gacomputes.cc.gatech.edu/search_form'
p38
g10
sS'https://research.cc.gatech.edu/sdmatcercs'
p39
g39
sS'http://gvu-web2.cc.gatech.edu/research'
p40
S'mailto:chandler@cc.gatech.edu'
p41
sS'http://gacomputes.cc.gatech.edu/events#portlet-navigation-tree'
p42
g10
sS'http://wiki.cc.gatech.edu/robotics'
p43
S'https://wiki.cc.gatech.edu/robotics'
p44
sS'http://www.cc.gatech.edu/%7Eathomaz'
p45
S'http://www.ic.gatech.edu'
p46
sS'http://www.cc.gatech.edu/inside'
p47
S'http://www.sic.gatech.edu'
p48
sS'http://www.cc.gatech.edu/~vetter'
p49
g31
sS'http://www.cc.gatech.edu/~guzdial'
p50
S'mailto:guzdial@cc.gatech.edu'
p51
sS'http://gacomputes.cc.gatech.edu/yardi#portlet-navigation-tree'
p52
g10
sS'http://wiki.cc.gatech.edu/gvu-proposals'
p53
S'https://wiki.cc.gatech.edu/gvu-proposals'
p54
sS'http://wiki.cc.gatech.edu/nlp-reading'
p55
S'https://wiki.cc.gatech.edu/nlp-reading'
p56
sS'http://gacomputes.cc.gatech.edu/login_form#portlet-navigation-tree'
p57
g10
sS'http://www.cc.gatech.edu/%7Ejx'
p58
g10
sS'http://gacomputes.cc.gatech.edu/sitemap?None&month:int=10&year:int=2014&orig_query=None#documentCont'
p59
g10
sS'http://wcc.gatech.edu'
p60
S'http://www.cc.gatech.edu/partnership'
p61
sS'http://coweb.cc.gatech.edu/mediaComp-plan'
p62
g3
sS'http://www.cc.gatech.edu/~edwardo'
p63
S'mailto:edwardo@cc.gatech.edu'
p64
sS'http://www.cc.gatech.edu/~mjang9'
p65
S'mailto:minsung@gatech.edu'
p66
sS'https://support.cc.gatech.edu/inside-tso'
p67
g10
sS'http://wiki.cc.gatech.edu/SOHOSec'
p68
S'https://wiki.cc.gatech.edu/SOHOSec'
p69
sS'http://wiki.cc.gatech.edu/geom'
p70
S'https://wiki.cc.gatech.edu/geom'
p71
sS'http://home.cc.gatech.edu/ubicomp'
p72
S'http://www.cc.gatech.edu/about'
p73
sS'http://www.cc.gatech.edu/%7Eisbell'
p74
S'mailto:isbell@cc.gatech.edu'
p75
sS'http://www-static.cc.gatech.edu/~jx'
p76
g10
sS'http://www.cc.gatech.edu/%7Eafb'
p77
S'http://www.robotics.gatech.edu'
p78
sS'http://gacomputes.cc.gatech.edu/accessibility-info'
p79
g10
sS'http://www.cc.gatech.edu/~bcousins'
p80
S'http://www.cc.gatech.edu/~vempala'
p81
sS'http://www.cc.gatech.edu/~mhu32'
p82
S'http://www.ic.gatech.edu/future'
p83
sS'http://wiki.cc.gatech.edu/roboticshandbook'
p84
S'https://wiki.cc.gatech.edu/roboticshandbook'
p85
sS'http://www.cc.gatech.edu/dimacs10'
p86
S'http://www.cc.gatech.edu/~hmeyerhe'
p87
sS'http://gacomputes.cc.gatech.edu/accessibility-info?None&month:int=10&year:int=2014&orig_query=None#p'
p88
g10
sS'http://wiki.cc.gatech.edu/alignmentfree'
p89
S'https://wiki.cc.gatech.edu/alignmentfree'
p90
sS'http://wiki.cc.gatech.edu/INC'
p91
S'https://wiki.cc.gatech.edu/INC'
p92
sS'http://gacomputes.cc.gatech.edu/accessibility-info?None&month:int=10&year:int=2014&orig_query=None#d'
p93
g10
sS'http://www.cc.gatech.edu/inc'
p94
S'https://research.cc.gatech.edu/inc'
p95
sS'http://wcc.gatech.edu/exhibition'
p96
S'http://www.id.gatech.edu/people'
p97
sS'http://www.cc.gatech.edu/~akmassey'
p98
S'mailto:akmassey@gatech.edu'
p99
sS'http://www.cc.gatech.edu/%7Ecpeikert'
p100
S'https://wiki.cc.gatech.edu/theory'
p101
sS'http://wiki.cc.gatech.edu/kacb-move'
p102
S'https://wiki.cc.gatech.edu/kacb-move'
p103
sS'http://wiki.cc.gatech.edu/ambient'
p104
S'https://wiki.cc.gatech.edu/ambient'
p105
sS'http://autism.cc.gatech.edu/index.html'
p106
S'http://www.cc.gatech.edu/gvu'
p107
sS'http://borg.cc.gatech.edu/ccg'
p108
S'http://www.gatech.edu/support'
p109
sS'http://wiki.cc.gatech.edu/cercscloud'
p110
S'https://wiki.cc.gatech.edu/cercscloud'
p111
sS'http://wiki.cc.gatech.edu/lab-managers'
p112
S'https://wiki.cc.gatech.edu/lab-managers'
p113
sS'http://www.cc.gatech.edu/home'
p114
S'mailto:rehg@cc.gatech.edu'
p115
sS'http://www.cc.gatech.edu/ael'
p116
S'http://www.gvu.gatech.edu/wearable-tech-innovations'
p117
sS'http://swiki.cc.gatech.edu:8080/csed'
p118
S'http://www.cc.gatech.edu/projects'
p119
sS'http://gacomputes.cc.gatech.edu/accessibility-info?None&month:int=9&year:int=2014&orig_query=None'
p120
g10
sS'http://wiki.cc.gatech.edu/dtn'
p121
S'https://wiki.cc.gatech.edu/dtn'
p122
sS'http://www.cc.gatech.edu/~vigoda'
p123
S'http://www.math.gatech.edu/~randall'
p124
sS'http://wiki.cc.gatech.edu/ihpcl'
p125
S'https://wiki.cc.gatech.edu/ihpcl'
p126
sS'http://www-static.cc.gatech.edu/classes'
p127
g98
sS'http://home.cc.gatech.edu/csl'
p128
S'http://www.prism.gatech.edu/~rc7'
p129
sS'http://gacomputes.cc.gatech.edu/sitemap?None&month:int=1&year:int=2015&orig_query=None'
p130
g10
sS'http://www.cc.gatech.edu/~bli46'
p131
g95
sS'http://www.cc.gatech.edu/%7Eshawj'
p132
S'MAILTO:shawj@cc.gatech.edu'
p133
sS'http://cc.gatech.edu/news'
p134
g48
sS'http://wiki.cc.gatech.edu/IFER'
p135
S'https://wiki.cc.gatech.edu/IFER'
p136
sS'http://gacomputes.cc.gatech.edu/search_form?None&month:int=12&year:int=2014&orig_query=None'
p137
g10
sS'http://gacomputes.cc.gatech.edu/search_form#documentContent'
p138
g10
sg81
S'http://www.isye.gatech.edu'
p139
sg119
S'www.cc.gatech.edu/~lingliu/papers/2007'
p140
sS'http://www.cc.gatech.edu/~jgarg'
p141
S'http://www.scs.gatech.edu'
p142
sS'http://www.cc.gatech.edu/~orso'
p143
g10
sS'http://www.cc.gatech.edu/~traynor'
p144
S'http://www.gtisc.gatech.edu'
p145
sS'http://wiki.cc.gatech.edu/cpl-internal'
p146
S'https://wiki.cc.gatech.edu/cpl-internal'
p147
sS'http://www.cc.gatech.edu/ai'
p148
S'mailto:robot-lab-www@cc.gatech.edu'
p149
sS'http://www.cc.gatech.edu/social-machines'
p150
S'http://www.cc.gatech.edu/~athomaz'
p151
sS'http://gacomputes.cc.gatech.edu/author?None&month:int=1&year:int=2015&orig_query=None'
p152
g10
sS'http://www.cc.gatech.edu/~yyang319'
p153
S'http://www.cc.gatech.edu/~jeisenst'
p154
sS'http://wiki.cc.gatech.edu/sofra'
p155
S'https://wiki.cc.gatech.edu/sofra'
p156
sS'http://wiki.cc.gatech.edu/cellbuzz-admin'
p157
S'https://wiki.cc.gatech.edu/cellbuzz-admin'
p158
sS'http://wiki.cc.gatech.edu/2010-phds'
p159
S'https://wiki.cc.gatech.edu/2010-phds'
p160
sS'http://gacomputes.cc.gatech.edu/login_form#documentContent'
p161
g10
sS'http://www.cc.gatech.edu/links'
p162
g48
sS'http://wiki.cc.gatech.edu/cercs'
p163
S'https://wiki.cc.gatech.edu/cercs'
p164
sS'http://www.cc.gatech.edu/~afb'
p165
g78
sS'http://www.cc.gatech.edu/ccl'
p166
g10
sS'http://wiki.cc.gatech.edu/GWNN'
p167
S'https://wiki.cc.gatech.edu/GWNN'
p168
sS'https://research.cc.gatech.edu/eilab'
p169
S'mailto:riedl@cc.gatech.edu'
p170
sS'http://www.cc.gatech.edu/vwlab'
p171
S'http://www.gvu.gatech.edu/virtual'
p172
sS'http://wiki.cc.gatech.edu/cvpr09-org'
p173
S'https://wiki.cc.gatech.edu/cvpr09-org'
p174
sS'http://www.cc.gatech.edu/~adit262'
p175
g10
sS'http://home.cc.gatech.edu/ice-gt'
p176
S'http://www.cc.gatech.edu/ice-gt'
p177
sS'http://www.cc.gatech.edu/~mike'
p178
g178
sS'http://www.cc.gatech.edu/~azook3'
p179
g131
sS'http://coweb.cc.gatech.edu/squeakbook'
p180
S'http://www.cc.gatech.edu/squeakbook'
p181
sS'http://www.cc.gatech.edu/~arkin'
p182
S'http://www.cc.gatech.edu/aimosaic'
p183
sS'http://wiki.cc.gatech.edu/salud'
p184
S'https://wiki.cc.gatech.edu/salud'
p185
sS'http://www.cc.gatech.edu/~mthomas6'
p186
S'http://www.cc.gatech.edu'
p187
sS'http://www.cc.gatech.edu/~maya'
p188
S'http://www.robotics.gatech.edu/index.php?option=com_content&task=view&id=939&Itemid=567'
p189
sS'http://www.cc.gatech.edu/~atamerso'
p190
S'mailto:lastname@gatech.edu'
p191
sS'http://www-static.cc.gatech.edu/%7Eturk'
p192
S'http://www.prism.gatech.edu/~kraveendran3'
p193
sS'http://www.cc.gatech.edu/ugrads'
p194
g194
sS'http://www.cc.gatech.edu/~sha9'
p195
g195
sS'http://wiki.cc.gatech.edu/hpcprojs'
p196
S'https://wiki.cc.gatech.edu/hpcprojs'
p197
sS'http://www.cc.gatech.edu/~venkat'
p198
g142
sS'http://gacomputes.cc.gatech.edu/search_form?None&month:int=1&year:int=2015&orig_query=None'
p199
g10
sS'http://www.cc.gatech.edu/~amerritt'
p200
S'http://www.finaid.gatech.edu/graduate'
p201
sS'http://home.cc.gatech.edu/eaganj'
p202
S'http://www.cc.gatech.edu/eaganj'
p203
sS'http://www.cc.gatech.edu/~agray'
p204
S'https://lists.gatech.edu/sympa'
p205
sS'http://gacomputes.cc.gatech.edu/author?None&month:int=12&year:int=2014&orig_query=None#portlet-navig'
p206
g10
sS'http://www.cc.gatech.edu/~jamer'
p207
S'http://www.gvu.gatech.edu'
p208
sS'http://www.cc.gatech.edu/sitemap'
p209
S'https://oscar.gatech.edu/pls'
p210
sS'http://wiki.cc.gatech.edu/topicmodels'
p211
S'https://wiki.cc.gatech.edu/topicmodels'
p212
sS'http://www.cc.gatech.edu/~thermans'
p213
S'https://www.cc.gatech.edu/~rehg'
p214
sS'http://gacomputes.cc.gatech.edu/#documentContent'
p215
g10
sS'http://swiki.cc.gatech.edu:8080/curator'
p216
S'http://www.cc.gatech.edu/Curator'
p217
sS'http://wiki.cc.gatech.edu/finishing'
p218
S'https://wiki.cc.gatech.edu/finishing'
p219
sS'http://wiki.cc.gatech.edu/ntg'
p220
S'https://wiki.cc.gatech.edu/ntg'
p221
sS'http://www.cc.gatech.edu/~leomark'
p222
S'mailto:leomark@cc.gatech.edu'
p223
sS'http://gacomputes.cc.gatech.edu/yardi'
p224
g10
sS'http://play.media.gatech.edu/s'
p225
S'http://www.cc.gatech.edu/s'
p226
sS'http://www.cc.gatech.edu/~nancyn'
p227
g183
sS'http://www.cc.gatech.edu/~cseim6'
p228
g46
sS'http://www.cc.gatech.edu/~naila'
p229
g10
sS'http://www.cc.gatech.edu/~jtan34'
p230
g10
sS'https://research.cc.gatech.edu/computing4fun'
p231
g169
sS'http://www.cc.gatech.edu/ice'
p232
S'file://///ccsamba.cc.gatech.edu/npolite3/www-ice/staff.htm'
p233
sS'http://www.cc.gatech.edu/~Chris.Atkeson'
p234
g10
sS'http://wiki.cc.gatech.edu/c4g'
p235
S'https://wiki.cc.gatech.edu/c4g'
p236
sS'http://www.cc.gatech.edu/%7Eharrold'
p237
S'http://www.scs.gatech.edu/research'
p238
sS'http://www.cc.gatech.edu/~karenliu'
p239
S'http://www.me.gatech.edu/sigmaxi'
p240
sS'http://wiki.cc.gatech.edu/theory'
p241
g101
sS'http://wiki.cc.gatech.edu/pset'
p242
S'https://wiki.cc.gatech.edu/pset'
p243
sS'http://wiki.cc.gatech.edu/CERCS-infra'
p244
S'https://wiki.cc.gatech.edu/CERCS-infra'
p245
sS'http://www.cc.gatech.edu/nameourrobot'
p246
g48
sS'http://research.cc.gatech.edu/act-lab'
p247
S'http://www.cc.gatech.edu/~hadi'
p248
sS'http://gacomputes.cc.gatech.edu/Members'
p249
S'mailto:renata@cc.gatech.edu'
p250
sS'http://egovision12.cc.gatech.edu/program.htm'
p251
S'http://egovision12.cc.gatech.edu/submission.htm'
p252
sS'http://gacomputes.cc.gatech.edu/contact-info?None&month:int=1&year:int=2015&orig_query=None'
p253
g10
sg6
g10
sS'http://www.cc.gatech.edu/events'
p254
S'mailto:vempala@cc.gatech.edu'
p255
sS'https://wiki.cc.gatech.edu/epl'
p256
g256
sS'http://gacomputes.cc.gatech.edu/author'
p257
g10
sS'http://wiki.cc.gatech.edu/MedVault'
p258
S'https://wiki.cc.gatech.edu/MedVault'
p259
sS'http://gacomputes.cc.gatech.edu/Members#documentContent'
p260
g10
sS'http://gacomputes.cc.gatech.edu/front-page#portlet-navigation-tree'
p261
g10
sS'http://wiki.cc.gatech.edu/glimpses'
p262
S'https://wiki.cc.gatech.edu/glimpses'
p263
sS'http://gacomputes.cc.gatech.edu/accessibility-info?None&month:int=11&year:int=2014&orig_query=None'
p264
g10
sS'http://www-static.cc.gatech.edu/streaming'
p265
S'mailto:randy@cc.gatech.edu'
p266
sS'http://wiki.cc.gatech.edu/remrem'
p267
S'https://wiki.cc.gatech.edu/remrem'
p268
sS'http://guzdial.cc.gatech.edu/photos'
p269
S'http://www.cc.gatech.edu/~mark.guzdial'
p270
sS'http://www.cc.gatech.edu/~milos'
p271
g10
sS'http://research.cc.gatech.edu/ccg'
p272
g109
sS'http://www.cc.gatech.edu/%7Emstilman'
p273
S'http://collab.cc.gatech.edu/humanoids'
p274
sS'http://wiki.cc.gatech.edu/scqualifier'
p275
S'https://wiki.cc.gatech.edu/scqualifier'
p276
sS'http://home.cc.gatech.edu/lana'
p277
g10
sS'http://wiki.cc.gatech.edu/hparch'
p278
S'https://wiki.cc.gatech.edu/hparch'
p279
sS'http://www.cc.gatech.edu/~abowd'
p280
S'mailto:abowd.gatech.edu'
p281
sS'http://www.cc.gatech.edu/~melody'
p282
S'mailto:melody@cc.gatech.edu'
p283
sS'http://gacomputes.cc.gatech.edu/projects#documentContent'
p284
g10
sg252
g252
sS'http://gacomputes.cc.gatech.edu/mail_password_form'
p285
g51
sS'http://www.cc.gatech.edu/~lingliu'
p286
S'mailto:zainmc@cc.gatech.edu'
p287
sS'http://coweb.cc.gatech.edu/midice'
p288
S'http://www.cc.gatech.edu/midice'
p289
sS'http://www.cc.gatech.edu/%7Efeamster'
p290
g142
sS'http://www.cc.gatech.edu/~goel'
p291
g183
sS'http://www.sab.cc.gatech.edu/index.php'
p292
g2
sS'http://egovision12.cc.gatech.edu/dates.htm'
p293
g252
sS'http://home.cc.gatech.edu/teaparty'
p294
S'http://www.cc.gatech.edu/TeaParty'
p295
sS'http://www.cc.gatech.edu/~mhong39'
p296
S'mailto:mhong@gatech.edu'
p297
sS'http://www.cc.gatech.edu/~calton'
p298
S'http://www.ti.gatech.edu'
p299
sS'http://gacomputes.cc.gatech.edu/sitemap#documentContent'
p300
g10
sS'http://wiki.cc.gatech.edu/MissionLab'
p301
S'https://wiki.cc.gatech.edu/MissionLab'
p302
sS'http://www.cc.gatech.edu/~hkim368'
p303
g142
sS'http://wiki.cc.gatech.edu/inspace'
p304
S'https://wiki.cc.gatech.edu/inspace'
p305
sS'http://www.cc.gatech.edu/~freeman'
p306
S'http://www.cc.gatech.edu/people'
p307
sS'http://wiki.cc.gatech.edu/hpc'
p308
g197
sS'http://wiki.cc.gatech.edu/roboteducation'
p309
S'https://wiki.cc.gatech.edu/roboteducation'
p310
sS'http://www.cc.gatech.edu/~aboldyre'
p311
g47
sS'http://gacomputes.cc.gatech.edu/events#documentContent'
p312
g10
sS'http://minnow.cc.gatech.edu/squeak.1'
p313
S'http://minnow.cc.gatech.edu/swiki'
p314
sS'http://gacomputes.cc.gatech.edu/login_form'
p315
g10
sS'http://gacomputes.cc.gatech.edu/contact-info?None&month:int=11&year:int=2014&orig_query=None'
p316
g10
sS'http://wiki.cc.gatech.edu/TINKER'
p317
S'https://wiki.cc.gatech.edu/TINKER'
p318
sS'http://cisec.cc.gatech.edu'
p319
S'mailto:mhunter@cc.gatech.edu'
p320
sS'http://gacomputes.cc.gatech.edu/contact-info?None&month:int=9&year:int=2014&orig_query=None'
p321
g10
sS'http://www-static.cc.gatech.edu/systems'
p322
S'mailto:Elba@cc.gatech.edu'
p323
sS'http://wiki.cc.gatech.edu/cpl'
p324
S'https://wiki.cc.gatech.edu/cpl'
p325
sS'http://gacomputes.cc.gatech.edu/search_form?None&month:int=10&year:int=2014&orig_query=None'
p326
g10
sS'http://gacomputes.cc.gatech.edu/search_form?None&month:int=12&year:int=2014&orig_query=None#document'
p327
g10
sS'http://gacomputes.cc.gatech.edu/#portlet-navigation-tree'
p328
g10
sS'http://www.cc.gatech.edu/~goodman'
p329
S'mailto:goodman@cc.gatech.edu'
p330
sS'http://gacomputes.cc.gatech.edu/sitemap?None&month:int=12&year:int=2014&orig_query=None#portlet-navi'
p331
g10
sS'http://wiki.cc.gatech.edu/sml'
p332
S'https://wiki.cc.gatech.edu/sml'
p333
sS'http://www.cc.gatech.edu/~john.stasko'
p334
S'http://www.ti.gatech.edu/basole'
p335
sS'http://www.cc.gatech.edu/theory'
p336
g3
sS'http://support.cc.gatech.edu'
p337
g10
sS'http://wiki.cc.gatech.edu/systems-studio'
p338
S'https://wiki.cc.gatech.edu/systems-studio'
p339
sS'https://research.cc.gatech.edu/CloudAtCercs'
p340
S'https://research.cc.gatech.edu/cloudatcercs'
p341
sS'http://wiki.cc.gatech.edu/LTDesign'
p342
S'https://wiki.cc.gatech.edu/LTDesign'
p343
sS'http://www.cc.gatech.edu/%7Ebader'
p344
g10
sS'http://wiki.cc.gatech.edu/synlab'
p345
S'https://wiki.cc.gatech.edu/synlab'
p346
sS'http://wiki.cc.gatech.edu/walllab'
p347
S'https://wiki.cc.gatech.edu/walllab'
p348
sS'http://www.cc.gatech.edu/current'
p349
S'https://t-square.gatech.edu/portal'
p350
sS'http://wiki.cc.gatech.edu/journalism'
p351
S'https://wiki.cc.gatech.edu/journalism'
p352
sS'http://home.cc.gatech.edu/mediacomp'
p353
g3
sS'http://home.cc.gatech.edu/allison'
p354
g10
sg107
S'www.arch.gatech.edu/crt/expert.htm#Computer'
p355
sS'http://swiki.cc.gatech.edu:8080/gvu-alum'
p356
S'http://www.cc.gatech.edu/gvu-alum'
p357
sS'http://www.sab.cc.gatech.edu/contact.php'
p358
g2
sS'http://www.cc.gatech.edu/%7elingliu'
p359
S'http://www.tsquare.gatech.edu'
p360
sS'http://www.cc.gatech.edu/~alouis3'
p361
g81
sS'http://web-science.cc.gatech.edu'
p362
S'mailto:drupal-users@cc.gatech.edu'
p363
sS'http://www-static.cc.gatech.edu/reverse'
p364
S'http://www.ee.gatech.edu/users'
p365
sS'http://www.cc.gatech.edu/~mparker6'
p366
g128
sS'http://wiki.cc.gatech.edu/CW2013'
p367
S'https://wiki.cc.gatech.edu/CW2013'
p368
sS'https://research.cc.gatech.edu/ecl'
p369
S'mailto:pater@gatech.edu'
p370
sS'http://wiki.cc.gatech.edu/IABExascale'
p371
S'https://wiki.cc.gatech.edu/IABExascale'
p372
sS'http://www.cc.gatech.edu/%7Ejohn.stasko'
p373
g335
sS'http://gacomputes.cc.gatech.edu/search_form?None&month:int=11&year:int=2014&orig_query=None'
p374
g10
sg214
g115
sS'http://gacomputes.cc.gatech.edu/search?Creator=jpdimond&sort_on=Date&sort_order=reverse'
p375
g10
sS'http://www.sab.cc.gatech.edu/calendar.php'
p376
g2
sS'http://gacomputes.cc.gatech.edu/contact-info?None&month:int=10&year:int=2014&orig_query=None'
p377
g10
sS'http://www.cc.gatech.edu/~santosh'
p378
S'http://www.cc.gatech.edu/site'
p379
sS'http://home.cc.gatech.edu/cmgardne'
p380
S'https://www.ceismc.gatech.edu/summerprograms'
p381
sS'http://egovision12.cc.gatech.edu/links.htm'
p382
g252
sS'http://wiki.cc.gatech.edu/AHRI'
p383
S'https://wiki.cc.gatech.edu/AHRI'
p384
sS'http://gacomputes.cc.gatech.edu/accessibility-info#documentContent'
p385
g10
sS'http://www.cc.gatech.edu/~simpkins'
p386
S'http://www.pe.gatech.edu/subjects'
p387
sS'http://collab.cc.gatech.edu'
p388
S'https://research.cc.gatech.edu'
p389
sS'http://wiki.cc.gatech.edu/masters'
p390
S'https://wiki.cc.gatech.edu/masters'
p391
sS'http://www.cc.gatech.edu/~mush33r'
p392
g145
sS'http://wiki.cc.gatech.edu/shapebank'
p393
S'https://wiki.cc.gatech.edu/shapebank'
p394
sS'http://egovision12.cc.gatech.edu/cfp.htm'
p395
g252
sS'http://www.cc.gatech.edu/~rehg'
p396
g115
sS'http://gacomputes.cc.gatech.edu/accessibility-info?None&month:int=1&year:int=2015&orig_query=None'
p397
g10
sS'http://gacomputes.cc.gatech.edu/georgia-tech-announces-project-georgia-computes#portlet-navigation-t'
p398
g10
sS'http://swiki.cc.gatech.edu/CSE'
p399
S'mailto:jiao@cc.gatech.edu'
p400
sS'http://wiki.cc.gatech.edu/EN'
p401
S'https://wiki.cc.gatech.edu/EN'
p402
sS'http://egovision12.cc.gatech.edu/index.html'
p403
g252
sS'http://research.cc.gatech.edu/eilab'
p404
g169
sS'http://www.cc.gatech.edu/~chadh'
p405
S'http://www.crest.gatech.edu/publications'
p406
sS'http://wiki.cc.gatech.edu'
p407
S'https://wiki.cc.gatech.edu/main'
p408
sS'http://www.cc.gatech.edu/~vishal'
p409
g10
sS'http://gacomputes.cc.gatech.edu'
p410
g10
sS'http://www.cc.gatech.edu/cpl'
p411
S'http://www.rim.gatech.edu'
p412
sS'http://www-static.cc.gatech.edu/~rama'
p413
g119
sS'http://www.cc.gatech.edu/dl'
p414
S'http://www.sic.gatech.edu/current'
p415
sS'http://gacomputes.cc.gatech.edu/author?None&month:int=12&year:int=2014&orig_query=None#documentConte'
p416
g10
sS'http://swiki.cc.gatech.edu:8080/WUAB'
p417
S'http://www.cc.gatech.edu/WUAB'
p418
sS'http://www.cc.gatech.edu/student.services'
p419
g419
sS'http://www-static.cc.gatech.edu/program'
p420
S'mailto://hhamilton@gatech.edu'
p421
sS'http://gacomputes.cc.gatech.edu/sitemap?None&month:int=12&year:int=2014&orig_query=None'
p422
g10
sS'http://www.cc.gatech.edu/staff'
p423
g307
sS'http://www.cc.gatech.edu/~fli'
p424
g213
sS'http://cc.gatech.edu/~ddewey3'
p425
g187
sS'http://swiki.cc.gatech.edu/compfreak'
p426
S'http://www.cc.gatech.edu/compfreak'
p427
sS'http://www.cc.gatech.edu/%7Ekwatra'
p428
g208
sS'http://wiki.cc.gatech.edu/graphs'
p429
S'https://wiki.cc.gatech.edu/graphs'
p430
sS'http://swiki.cc.gatech.edu:8080/ectropic'
p431
g20
sS'http://www-static.cc.gatech.edu/~turk'
p432
g192
sS'http://wiki.cc.gatech.edu/alumni'
p433
S'https://wiki.cc.gatech.edu/alumni'
p434
sS'http://gacomputes.cc.gatech.edu/mail_password_form?None&month:int=10&year:int=2014&orig_query=None#d'
p435
g51
sS'http://www-static.cc.gatech.edu/~john.stasko'
p436
g335
sS'http://www.cc.gatech.edu/~bader'
p437
S'mailto:lometa@cc.gatech.edu'
p438
sS'http://ubicomp.cc.gatech.edu'
p439
g73
sS'http://www.cc.gatech.edu/~mustaq'
p440
S'http://www.gatech.edu/TechHome.html'
p441
sS'http://research.cc.gatech.edu/gradbots'
p442
S'https://research.cc.gatech.edu/gradbots'
p443
sS'https://lists.cc.gatech.edu/mailman'
p444
S'mailto:lab-managers@cc.gatech.edu'
p445
sS'http://www.cc.gatech.edu/%7Erama'
p446
S'http://www.star.cc.gatech.edu'
p447
sS'http://www.cc.gatech.edu/news'
p448
S'www.gtisc.gatech.edu/'
p449
sS'http://wiki.cc.gatech.edu/iddat'
p450
S'https://wiki.cc.gatech.edu/iddat'
p451
sS'http://wiki.cc.gatech.edu/ccl'
p452
S'https://wiki.cc.gatech.edu/ccl'
p453
sS'http://wiki.cc.gatech.edu/ccg'
p454
S'http://www.gvu.gatech.edu/facilities'
p455
sS'http://wiki.cc.gatech.edu/humanoids'
p456
S'https://wiki.cc.gatech.edu/humanoids'
p457
sS'http://gacomputes.cc.gatech.edu/contact-info?None&month:int=12&year:int=2014&orig_query=None#documen'
p458
g10
sS'http://gacomputes.cc.gatech.edu/contact-info'
p459
g10
sS'http://www.cc.gatech.edu/~spencer'
p460
g10
sS'http://gacomputes.cc.gatech.edu/google7eb63c5b2f6157a4.html'
p461
g10
sS'http://www.cc.gatech.edu/~shawj'
p462
g133
sS'http://www.cc.gatech.edu/%7Echris'
p463
g234
sS'http://www.cc.gatech.edu/%7Ethad'
p464
g10
sS'http://gacomputes.cc.gatech.edu/sitemap'
p465
g10
sS'http://wiki.cc.gatech.edu/arriaga'
p466
S'https://wiki.cc.gatech.edu/arriaga'
p467
sS'http://gacomputes.cc.gatech.edu/mail_password_form#documentContent'
p468
g51
sS'https://wiki.cc.gatech.edu/cellbuzz'
p469
g469
sS'http://ice-web.cc.gatech.edu/dl'
p470
g414
sS'http://wiki.cc.gatech.edu/ksi'
p471
S'https://wiki.cc.gatech.edu/ksi'
p472
sS'http://gacomputes.cc.gatech.edu/georgia-tech-announces-project-georgia-computes#documentContent'
p473
g10
sS'http://www.cc.gatech.edu/~jx'
p474
g10
sS'http://wiki.cc.gatech.edu/CSSP'
p475
S'https://wiki.cc.gatech.edu/CSSP'
p476
sS'http://wiki.cc.gatech.edu/robocup'
p477
S'https://wiki.cc.gatech.edu/robocup'
p478
sS'http://tinker.cc.gatech.edu/tinkpeople.html'
p479
S'mailto:rbheda3@gatech.edu'
p480
sS'http://www.cc.gatech.edu/systems'
p481
S'mailto:seif@cc.gatech.edu'
p482
sS'http://www.cc.gatech.edu/external-news'
p483
g48
sS'http://home.cc.gatech.edu/ccl'
p484
S'http://www.gtri.gatech.edu'
p485
sS'http://cc.gatech.edu/scmag'
p486
g48
sS'http://www.cc.gatech.edu/arc'
p487
g10
sS'https://support.cc.gatech.edu/resources'
p488
g10
sg408
g408
sS'http://gacomputes.cc.gatech.edu/search?Creator=yardi&sort_on=Date&sort_order=reverse'
p489
g10
sS'http://support.cc.gatech.edu/services'
p490
S'mailto:helpdesk@cc.gatech.edu'
p491
sS'http://gacomputes.cc.gatech.edu/mail_password_form?None&month:int=1&year:int=2015&orig_query=None'
p492
g51
sS'http://www.cc.gatech.edu/%7Eaboldyre'
p493
g47
sS'http://home.cc.gatech.edu/guzdial'
p494
S'https://cgi4.cc.gatech.edu/phps'
p495
sS'http://wiki.cc.gatech.edu/intelnonnumeric'
p496
S'https://wiki.cc.gatech.edu/intelnonnumeric'
p497
sS'http://www.cc.gatech.edu/~minlee'
p498
g187
sS'http://www.cc.gatech.edu/%7Elingliu'
p499
S'mailto:mudhakar@cc.gatech.edu'
p500
sS'http://gacomputes.cc.gatech.edu/accessibility-info#portlet-navigation-tree'
p501
g10
sS'http://wiki.cc.gatech.edu/remoterepair'
p502
S'https://wiki.cc.gatech.edu/remoterepair'
p503
sS'http://www.cc.gatech.edu/pasqual'
p504
g205
sS'http://www.cc.gatech.edu/~arya'
p505
S'http://www.iai.gatech.edu'
p506
sS'http://www-static.cc.gatech.edu/~axa'
p507
S'http://www.cc.gatech.edu/~axa'
p508
sS'http://www.cc.gatech.edu/~ogreen3'
p509
S'http://www.cse.gatech.edu'
p510
sS'http://www.cc.gatech.edu/cas'
p511
S'https://passport.gatech.edu/?action=check-account-status'
p512
sS'http://www.sab.cc.gatech.edu/photos.php'
p513
g2
sS'http://ta-app.cc.gatech.edu'
p514
g10
sS'http://www.cc.gatech.edu/compiler'
p515
S'http://www.pe.gatech.edu'
p516
sS'http://www.cc.gatech.edu/~echow'
p517
g350
sS'http://www.cc.gatech.edu/~skannan9'
p518
S'http://www.cercs.gatech.edu'
p519
sS'http://wiki.cc.gatech.edu/gtisc'
p520
S'https://wiki.cc.gatech.edu/gtisc'
p521
sS'http://www.cc.gatech.edu/aggregator'
p522
g48
sS'http://www.cc.gatech.edu/~ahumayun'
p523
g396
sS'http://wiki.cc.gatech.edu/ic-service'
p524
S'https://wiki.cc.gatech.edu/ic-service'
p525
sS'http://www.cc.gatech.edu/~ybai30'
p526
S'http://www.gvu.gatech.edu/~jarek'
p527
sS'http://cc.gatech.edu/events'
p528
g48
sS'https://research.cc.gatech.edu/drupal'
p529
g529
sS'http://coweb.cc.gatech.edu/mmworkshop'
p530
S'http://www.cc.gatech.edu/mmWorkshop'
p531
sS'http://www.cc.gatech.edu/morale'
p532
g21
sg151
g46
sS'http://www.cc.gatech.edu/%7Eninamf'
p533
g533
sS'http://www.cc.gatech.edu/~asb'
p534
g46
sS'http://www.ccl.cc.gatech.edu'
p535
g10
sS'http://www.cc.gatech.edu/~saluru'
p536
g10
sS'http://gacomputes.cc.gatech.edu/contact-info?None&month:int=10&year:int=2014&orig_query=None#documen'
p537
g10
sS'http://www.cc.gatech.edu/brainlab'
p538
g538
sS'http://gacomputes.cc.gatech.edu/accessibility-info?None&month:int=12&year:int=2014&orig_query=None'
p539
g10
sS'http://www.cc.gatech.edu/~tucker'
p540
S'mailto:tucker@cc.gatech.edu'
p541
sS'http://gacomputes.cc.gatech.edu/search?Creator=bjordin&sort_on=Date&sort_order=reverse'
p542
g10
sS'http://wiki.cc.gatech.edu/apparch'
p543
S'https://wiki.cc.gatech.edu/apparch'
p544
sS'http://wiki.cc.gatech.edu/ms-hci'
p545
S'https://wiki.cc.gatech.edu/ms-hci'
p546
sS'http://wiki.cc.gatech.edu/cvpr09'
p547
S'https://wiki.cc.gatech.edu/cvpr09'
p548
sS'https://wiki.cc.gatech.edu/cse'
p549
g549
sS'http://www.cc.gatech.edu/dynamo'
p550
S'mailto:dynamo-support@cc.gatech.edu'
p551
sS'http://www.cc.gatech.edu/~ninamf'
p552
g533
sS'http://wiki.cc.gatech.edu/gvu'
p553
g11
sS'http://www.cc.gatech.edu/~skrehbie'
p554
S'http://www.cc.gatech.edu/~sasha'
p555
sS'http://www.cc.gatech.edu/%7Espencer'
p556
g10
sS'http://gacomputes.cc.gatech.edu/author?None&month:int=10&year:int=2014&orig_query=None#documentConte'
p557
g10
sS'http://wiki.cc.gatech.edu/photography'
p558
S'https://wiki.cc.gatech.edu/photography'
p559
sg508
g10
sS'http://cc.gatech.edu/content'
p560
g48
sS'http://gacomputes.cc.gatech.edu/Members#portlet-navigation-tree'
p561
g10
sS'http://wiki.cc.gatech.edu/cruise'
p562
S'https://wiki.cc.gatech.edu/cruise'
p563
sS'http://www.cc.gatech.edu/index.html'
p564
g48
sg443
g10
sS'http://www.cc.gatech.edu/awards'
p565
S'https://smartech.gatech.edu/handle'
p566
sS'http://wiki.cc.gatech.edu/gtiscsrg'
p567
S'https://wiki.cc.gatech.edu/gtiscsrg'
p568
sS'http://gacomputes.cc.gatech.edu/search?Creator=guzdial&sort_on=Date&sort_order=reverse'
p569
g10
sS'http://gacomputes.cc.gatech.edu/contact-info#documentContent'
p570
g10
sS'http://gacomputes.cc.gatech.edu/sitemap#portlet-navigation-tree'
p571
g10
sS'http://gacomputes.cc.gatech.edu/search?Creator=bjordin&sort_on=Date&sort_order=reverse&month:int=10&'
p572
g10
sS'http://home.cc.gatech.edu/jlk'
p573
g10
sS'http://wiki.cc.gatech.edu/cellbuzz'
p574
g469
sS'http://coweb.cc.gatech.edu/guzdial'
p575
g270
sS'http://www.cc.gatech.edu/~cstolper'
p576
g107
sS'https://research.cc.gatech.edu/rim'
p577
g577
sS'http://www.cc.gatech.edu/~agalanis'
p578
g123
sS'http://www.cc.gatech.edu/~randy'
p579
g208
sS'http://www.cc.gatech.edu/%7Ebli46'
p580
g95
sS'http://www.cc.gatech.edu/fac'
p581
S'mailto:watersr@cc.gatech.edu'
p582
sS'https://www.cc.gatech.edu/program'
p583
g3
sS'http://www.cc.gatech.edu/~rama'
p584
g447
sS'http://www.cc.gatech.edu/cap'
p585
g48
sS'http://www.cc.gatech.edu/~ksubrama'
p586
g74
sg274
g254
sS'http://gacomputes.cc.gatech.edu/author?None&month:int=11&year:int=2014&orig_query=None'
p587
g10
sS'http://www.cc.gatech.edu/~liam'
p588
S'mailto:liam@cc.gatech.edu'
p589
sS'http://gacomputes.cc.gatech.edu/mail_password_form?None&month:int=10&year:int=2014&orig_query=None#p'
p590
g51
sS'http://www.cc.gatech.edu/~kaess'
p591
g10
sS'http://www.cc.gatech.edu/~ada'
p592
S'www.cc.gatech.edu/~jli351'
p593
sS'http://trac.research.cc.gatech.edu/graphs'
p594
S'http://www.cc.gatech.edu/stinger'
p595
sS'http://gacomputes.cc.gatech.edu/accessibility-info?None&month:int=10&year:int=2014&orig_query=None'
p596
g10
sS'http://uroc.cc.gatech.edu'
p597
g3
sS'http://wiki.cc.gatech.edu/3dpvt08'
p598
S'https://wiki.cc.gatech.edu/3dpvt08'
p599
sS'http://wiki.cc.gatech.edu/uroc'
p600
S'https://wiki.cc.gatech.edu/uroc'
p601
sS'http://egovision12.cc.gatech.edu'
p602
g252
sS'http://www.cc.gatech.edu/~akundu7'
p603
g78
sS'http://swiki.cc.gatech.edu:8080/Curator'
p604
g217
sS'https://research.cc.gatech.edu/theory'
p605
g336
sS'http://dilab.cc.gatech.edu/dane'
p606
g10
sg187
g48
sS'http://www.cc.gatech.edu/tso'
p607
g10
sS'http://wiki.cc.gatech.edu/tso-projects'
p608
S'https://wiki.cc.gatech.edu/tso-projects'
p609
sS'https://research.cc.gatech.edu/OpenSensing'
p610
S'http://www.cc.gatech.edu/OpenSensing'
p611
sS'http://www.cc.gatech.edu/regdates'
p612
g210
sS'http://wiki.cc.gatech.edu/epl'
p613
g256
sS'http://www.cc.gatech.edu/~ewz'
p614
g10
sS'http://www.cc.gatech.edu/campice'
p615
S'mailto:ice@cc.gatech.edu'
p616
sS'http://wiki.cc.gatech.edu/aardvark'
p617
S'https://wiki.cc.gatech.edu/aardvark'
p618
sS'http://www.cc.gatech.edu/future'
p619
S'mailto:cc-futureundergrads@lists.gatech.edu?subject=Visit to the College of Computing'
p620
sS'http://wiki.cc.gatech.edu/comparch'
p621
S'https://wiki.cc.gatech.edu/comparch'
p622
sS'http://gacomputes.cc.gatech.edu/publications#portlet-navigation-tree'
p623
g10
sg183
g149
sS'http://www.cc.gatech.edu/is'
p624
g3
sg270
g51
sS'http://www.cc.gatech.edu/sparc'
p625
S'http://www.prism.gatech.edu/~gte310v'
p626
sS'http://wiki.cc.gatech.edu/designcomp'
p627
S'https://wiki.cc.gatech.edu/designcomp'
p628
sS'http://wiki.cc.gatech.edu/infrastructure'
p629
S'https://wiki.cc.gatech.edu/infrastructure'
p630
sS'http://swiki.cc.gatech.edu:8080/TAJ'
p631
S'http://www.cc.gatech.edu/TAJ'
p632
sS'http://www.cc.gatech.edu/cercs'
p633
S'http://www.techsym.cc.gatech.edu'
p634
sS'http://www.cc.gatech.edu/~isbell'
p635
g75
sS'http://www.cc.gatech.edu/~chris'
p636
g234
sS'http://www.cc.gatech.edu/~rmehta'
p637
g10
sS'http://www.cc.gatech.edu/classes'
p638
S'mailto:stasko@cc.gatech.edu'
p639
sS'http://www.cc.gatech.edu/~wang6'
p640
S'http://www2.clustrmaps.com/counter'
p641
sS'http://www.cc.gatech.edu/~xliu66'
p642
g10
sS'http://www.cc.gatech.edu/%7Eleomark'
p643
g223
sS'http://gacomputes.cc.gatech.edu/mail_password_form?None&month:int=10&year:int=2014&orig_query=None'
p644
g51
sS'http://gacomputes.cc.gatech.edu/search?Creator=bjordin&sort_on=Date&sort_order=reverse#documentConte'
p645
g10
sS'http://cpl.cc.gatech.edu'
p646
g412
sS'http://gacomputes.cc.gatech.edu/events'
p647
g10
sS'http://gacomputes.cc.gatech.edu/search_form?None&month:int=12&year:int=2014&orig_query=None#portlet-'
p648
g10
sS'http://wiki.cc.gatech.edu/vtg'
p649
S'https://wiki.cc.gatech.edu/vtg'
p650
sS'http://swiki.cc.gatech.edu:8080/srforum'
p651
S'http://www.cc.gatech.edu/srforum'
p652
sS'http://www.cc.gatech.edu/~lsong'
p653
S'http://www.cse.gatech.edu/people'
p654
sS'http://coweb.cc.gatech.edu/mediacomp-plan'
p655
S'http://www.cc.gatech.edu/mediaComp-plan'
p656
sS'http://www-static.cc.gatech.edu'
p657
g48
sS'http://www.cc.gatech.edu/%7Esantosh'
p658
g379
sg628
S'mailto:ellendo@gatech.edu'
p659
sS'https://wiki.cc.gatech.edu/ccg'
p660
g455
sS'http://www-static.cc.gatech.edu/gvu'
p661
g117
sS'http://www.cc.gatech.edu/~pmw'
p662
g187
sS'http://www.cc.gatech.edu/reverse'
p663
g21
sS'http://wiki.cc.gatech.edu/ebd'
p664
S'https://wiki.cc.gatech.edu/ebd'
p665
sS'https://research.cc.gatech.edu/muri'
p666
g666
sS'http://sti.cc.gatech.edu'
p667
g437
sS'http://wiki.cc.gatech.edu/vms'
p668
S'https://wiki.cc.gatech.edu/vms'
p669
sS'http://www.cc.gatech.edu/%7Ecalton'
p670
g299
sS'http://gacomputes.cc.gatech.edu/mail_password_form#portlet-navigation-tree'
p671
g51
sS'http://www.cc.gatech.edu/~feamster'
p672
g142
sS'http://www.cc.gatech.edu/~dchau'
p673
g335
sS'http://coweb.cc.gatech.edu/ice-gt'
p674
S'https://epay.gatech.edu/C20793_ustores'
p675
sS'http://www.cc.gatech.edu/~tpilsch'
p676
S'mailto:Tom Pilsch <pilsch@gatech.edu>'
p677
sg314
g314
sS'http://www.cc.gatech.edu/features'
p678
g48
sS'http://wiki.cc.gatech.edu/roles'
p679
S'https://wiki.cc.gatech.edu/roles'
p680
sS'http://www.cc.gatech.edu/graphics'
p681
g193
sS'http://wiki.cc.gatech.edu/chi2010'
p682
S'https://wiki.cc.gatech.edu/chi2010'
p683
sS'http://gacomputes.cc.gatech.edu/mail_password_form?None&month:int=11&year:int=2014&orig_query=None'
p684
g51
sS'http://www.cc.gatech.edu/~guerra'
p685
S'mailto:guerra@cc.gatech.edu'
p686
sS'http://www.cc.gatech.edu/node'
p687
S'mailto:talent@cc.gatech.edu'
p688
sS'http://www.cc.gatech.edu/index.php'
p689
g48
sS'http://www.cc.gatech.edu/~cpeikert'
p690
g101
sS'http://www.cc.gatech.edu/~keith'
p691
g46
sS'http://gacomputes.cc.gatech.edu/search?Creator=bjordin&sort_on=Date&sort_order=reverse&month:int=12&'
p692
g10
sS'http://gacomputes.cc.gatech.edu/yardi#documentContent'
p693
g10
sS'http://wiki.cc.gatech.edu/chmpr'
p694
S'https://wiki.cc.gatech.edu/chmpr'
p695
sS'http://wiki.cc.gatech.edu/brainlab'
p696
S'https://wiki.cc.gatech.edu/brainlab'
p697
sg197
g197
sS'http://www.cc.gatech.edu/%7Etraynor'
p698
g187
sS'http://gacomputes.cc.gatech.edu/author?None&month:int=10&year:int=2014&orig_query=None'
p699
g10
sS'http://www.cc.gatech.edu/engage'
p700
g48
sS'http://www.cc.gatech.edu/eilab'
p701
g169
sS'https://research.cc.gatech.edu/keeneland'
p702
g10
sS'http://www.sab.cc.gatech.edu/admin'
p703
g512
sS'http://www.cc.gatech.edu/elc'
p704
S'mailto:palaver@cc.gatech.edu'
p705
sS'http://wiki.cc.gatech.edu/garment'
p706
S'https://wiki.cc.gatech.edu/garment'
p707
sS'http://hcc.cc.gatech.edu'
p708
S'www.cc.gatech.edu/~iulian'
p709
sS'http://swiki.cc.gatech.edu:8080/icecamp'
p710
S'http://www.cc.gatech.edu/icecamp'
p711
sS'http://support.cc.gatech.edu/inside-tso'
p712
g67
sS'http://gacomputes.cc.gatech.edu/sitemap?None&month:int=10&year:int=2014&orig_query=None'
p713
g10
sS'http://coweb.cc.gatech.edu'
p714
S'mailto:swiki-bugs@cc.gatech.edu'
p715
sS'http://www.cc.gatech.edu/~jriedy'
p716
S'mailto:jason.riedy@cc.gatech.edu'
p717
sS'http://jigsaw.w3.org/css-validator'
p718
g690
sS'http://wiki.cc.gatech.edu/crg'
p719
S'https://wiki.cc.gatech.edu/crg'
p720
sS'http://www.sab.cc.gatech.edu/about.php'
p721
g2
sS'http://coweb.cc.gatech.edu/cs1316'
p722
g350
sS'http://gacomputes.cc.gatech.edu/contact-info?None&month:int=12&year:int=2014&orig_query=None#portlet'
p723
g10
sS'http://www.cc.gatech.edu/~mnaik7'
p724
g142
sS'http://egovision12.cc.gatech.edu/people.htm'
p725
g252
sS'http://www-static.cc.gatech.edu/projects'
p726
g145
sS'http://wiki.cc.gatech.edu/ael'
p727
S'https://wiki.cc.gatech.edu/ael'
p728
sS'http://www.cc.gatech.edu/~mwolf'
p729
S'mailto:mwolf@cc.gatech.edu'
p730
sS'http://gacomputes.cc.gatech.edu/contact-info?None&month:int=12&year:int=2014&orig_query=None'
p731
g10
sS'http://www.cc.gatech.edu/vaccine'
p732
g10
sS'http://www.cc.gatech.edu/jobs'
p733
g48
sS'http://wiki.cc.gatech.edu/ubicomp'
p734
S'https://wiki.cc.gatech.edu/ubicomp'
p735
sS'http://wiki.cc.gatech.edu/incomingphd'
p736
S'https://wiki.cc.gatech.edu/incomingphd'
p737
sS'http://wiki.cc.gatech.edu/aco-threads'
p738
S'https://wiki.cc.gatech.edu/aco-threads'
p739
sS'http://www.cc.gatech.edu/computing'
p740
S'mailto:zahid@cc.gatech.edu'
p741
sS'http://blis.cc.gatech.edu'
p742
S'http://www.cc.gatech.edu/inuse.php'
p743
sS'http://gacomputes.cc.gatech.edu/news#documentContent'
p744
g10
sS'http://gacomputes.cc.gatech.edu/front-page'
p745
g10
sS'http://home.cc.gatech.edu/arya'
p746
S'http://www.cc.gatech.edu/arya'
p747
sg389
g363
sS'http://gacomputes.cc.gatech.edu/publications'
p748
g10
sS'http://guzdial.cc.gatech.edu/squeakbook'
p749
g270
sS'http://wiki.cc.gatech.edu/CERCSPoster'
p750
S'https://wiki.cc.gatech.edu/CERCSPoster'
p751
sS'http://gacomputes.cc.gatech.edu/mail_password_form?None&month:int=12&year:int=2014&orig_query=None#d'
p752
g51
sS'http://www.cc.gatech.edu/~mihail'
p753
S'www.math.gatech.edu/~tetali/'
p754
sS'http://wiki.cc.gatech.edu/c4gblis'
p755
S'https://wiki.cc.gatech.edu/c4gblis'
p756
sS'http://www.cc.gatech.edu/news?page=3'
p757
g48
sS'http://www.cc.gatech.edu/~omojokun'
p758
g350
sS'http://www.cc.gatech.edu/~zyin9'
p759
g437
sS'http://gacomputes.cc.gatech.edu/mail_password_form?None&month:int=12&year:int=2014&orig_query=None#p'
p760
g51
sS'http://wiki.cc.gatech.edu/appwiki'
p761
S'https://wiki.cc.gatech.edu/appwiki'
p762
sS'http://www.cc.gatech.edu/~vazirani'
p763
g441
sS'http://wiki.cc.gatech.edu/sensor-lab'
p764
S'https://wiki.cc.gatech.edu/sensor-lab'
p765
sS'http://cc.gatech.edu/features'
p766
S'http://www.sic.gatech.edu/people'
p767
sS'http://www.cc.gatech.edu/ccg'
p768
g455
sS'http://wiki.cc.gatech.edu/collab-managers'
p769
S'https://wiki.cc.gatech.edu/collab-managers'
p770
sS'http://www.cc.gatech.edu/~hyoon45'
p771
g142
sS'http://www.cc.gatech.edu/~harrold'
p772
g238
sS'http://home.cc.gatech.edu/TeaParty'
p773
g295
sS'http://www.cc.gatech.edu/streaming'
p774
g266
sS'http://gacomputes.cc.gatech.edu/contact-info#portlet-navigation-tree'
p775
g10
sS'http://ice.cc.gatech.edu/dl'
p776
g414
sg447
S'mailto:rama@cc.gatech.edu'
p777
sS'http://wiki.cc.gatech.edu/hccquals'
p778
S'https://wiki.cc.gatech.edu/hccquals'
p779
sS'http://gacomputes.cc.gatech.edu/mail_password_form?None&month:int=12&year:int=2014&orig_query=None'
p780
g51
sS'http://www.cc.gatech.edu/iamgtcomputing'
p781
g48
sS'http://wiki.cc.gatech.edu/pag'
p782
S'https://wiki.cc.gatech.edu/pag'
p783
sS'http://gacomputes.cc.gatech.edu/contact-info?None&month:int=10&year:int=2014&orig_query=None#portlet'
p784
g10
sS'http://wiki.cc.gatech.edu/sting'
p785
S'https://wiki.cc.gatech.edu/sting'
p786
sS'http://www.cc.gatech.edu/~rpienta3'
p787
g187
sS'http://www.cc.gatech.edu/~ellendo'
p788
g659
sS'http://www-static.cc.gatech.edu/elc'
p789
S'mailto:aquamoose-request@cc.gatech.edu'
p790
sS'http://gacomputes.cc.gatech.edu/front-page#documentContent'
p791
g10
sS'http://www-static.cc.gatech.edu/~lingliu'
p792
g287
sg101
g101
sS'http://gacomputes.cc.gatech.edu/author?None&month:int=10&year:int=2014&orig_query=None#portlet-navig'
p793
g10
sS'http://home.cc.gatech.edu/hrichter'
p794
S'http://www.cc.gatech.edu/hrichter'
p795
sS'http://minnow.cc.gatech.edu/squeak'
p796
g314
sS'http://www.cc.gatech.edu/~abanerje'
p797
S'http://www2.isye.gatech.edu/~cguzman6'
p798
sS'http://www.cc.gatech.edu/faculty'
p799
g51
sS'http://home.cc.gatech.edu/dil'
p800
S'http://www.hsi.gatech.edu'
p801
sS'http://www-static.cc.gatech.edu/fac'
p802
g582
sS'http://wiki.cc.gatech.edu/GSCGuide'
p803
S'https://wiki.cc.gatech.edu/GSCGuide'
p804
sS'http://wiki.cc.gatech.edu/bcn'
p805
S'https://wiki.cc.gatech.edu/bcn'
p806
sS'http://home.cc.gatech.edu/boneill'
p807
S'http://www.cc.gatech.edu/~boneill'
p808
sS'http://gacomputes.cc.gatech.edu/publications#documentContent'
p809
g10
sS'http://guzdial.cc.gatech.edu/papers'
p810
S'http://www.cc.gatech.edu/papers'
p811
sS'http://wiki.cc.gatech.edu/awl'
p812
S'https://wiki.cc.gatech.edu/awl'
p813
sS'http://gacomputes.cc.gatech.edu/sitemap?None&month:int=9&year:int=2014&orig_query=None'
p814
g10
sS'http://www.cc.gatech.edu/%7Edmpatra'
p815
g187
sS'http://support.cc.gatech.edu/facilities'
p816
S'mailto:helpdesk@cc.gatech.edu?subject=Request%20from%20support.cc%20web%20page'
p817
sS'http://www.cc.gatech.edu/~schen351'
p818
g10
sS'http://support.cc.gatech.edu/support-tools'
p819
S'https://support.cc.gatech.edu/support-tools'
p820
sS'http://cc.gatech.edu/~thermans'
p821
g214
sS'http://www.cc.gatech.edu/~dkuang3'
p822
S'http://www.honor.gatech.edu/plugins'
p823
sS'http://www.cc.gatech.edu/~ygu48'
p824
g230
sS'http://cc.gatech.edu'
p825
g48
sS'http://www.cc.gatech.edu/content'
p826
S'mailto:alicia%40cc.gatech.edu'
p827
sg73
g675
sS'http://www.cc.gatech.edu/pixi'
p828
S'http://www.sga.gatech.edu/graduate'
p829
sS'http://wiki.cc.gatech.edu/ClimateSE'
p830
S'https://wiki.cc.gatech.edu/ClimateSE'
p831
sg113
g113
sS'http://sqltutor.cc.gatech.edu'
p832
S'http://www.cc.gatech.edu/TermsOfServicePage.jsf;jsessionid=2C51F5BA072251DB31EC6E888B29F90D'
p833
sS'http://www.cc.gatech.edu/~stasko'
p834
g350
sS'http://www.sab.cc.gatech.edu/news_archives.php'
p835
g2
sS'http://cc.gatech.edu/~rehg'
p836
g115
sS'http://swiki.cc.gatech.edu:8080/vwlab'
p837
g172
sS'http://www.cc.gatech.edu/%7Eturk'
p838
g193
sS'http://gacomputes.cc.gatech.edu/sitemap?None&month:int=12&year:int=2014&orig_query=None#documentCont'
p839
g10
sS'http://web.archive.org/web'
p840
S'http://www.cc.gatech.edu/web'
p841
sS'http://www.cc.gatech.edu/~mikeb'
p842
S'http://mikeb.inta.gatech.edu/students'
p843
sS'http://wiki.cc.gatech.edu/systems-lab'
p844
S'https://wiki.cc.gatech.edu/systems-lab'
p845
sS'http://www.cc.gatech.edu/%7Easb'
p846
g46
sS'http://www.cc.gatech.edu/~syazdanb'
p847
g142
sS'http://gacomputes.cc.gatech.edu/search?Creator=ericson&sort_on=Date&sort_order=reverse'
p848
g10
sS'http://www.cc.gatech.edu/~ychew3'
p849
g83
sS'http://coweb.cc.gatech.edu/mediaComp-teach'
p850
g51
sS'http://webscience.cc.gatech.edu'
p851
g31
sS'http://wiki.cc.gatech.edu/graphics'
p852
S'https://wiki.cc.gatech.edu/graphics'
p853
sS'http://research.cc.gatech.edu/inc'
p854
g170
sS'http://www.cc.gatech.edu/contact'
p855
S'http://www.sic.gatech.edu/contact'
p856
sS'http://www.cc.gatech.edu/~jarek'
p857
g527
sS'http://www.cc.gatech.edu/~akhan67'
p858
g798
sS'http://ml.cc.gatech.edu'
p859
S'http://www2.isye.gatech.edu/~xiaoming'
p860
sS'http://www.cc.gatech.edu/%7Erehg'
p861
g115
sS'http://swiki.cc.gatech.edu/icecamp'
p862
g711
sS'http://wiki.cc.gatech.edu/dil'
p863
S'https://wiki.cc.gatech.edu/dil'
p864
sS'http://www.cc.gatech.edu/~jscholz6'
p865
S'http://www.cc.gatech.edu/~mstilman'
p866
sS'http://wiki.cc.gatech.edu/cse-curriculum'
p867
S'https://wiki.cc.gatech.edu/cse-curriculum'
p868
sS'http://www.cc.gatech.edu/%7Emihail'
p869
g754
sS'http://gacomputes.cc.gatech.edu/news'
p870
g10
sS'http://home.cc.gatech.edu/csed'
p871
g10
sS'https://wiki.cc.gatech.edu/folklore'
p872
g872
sS'http://gacomputes.cc.gatech.edu/georgia-tech-announces-project-georgia-computes'
p873
g10
sS'http://home.cc.gatech.edu/dorn'
p874
g50
sS'http://wiki.cc.gatech.edu/RIMChat'
p875
S'https://wiki.cc.gatech.edu/RIMChat'
p876
sS'http://www.cc.gatech.edu/three-year-course-outline '
p877
g48
sS'http://wiki.cc.gatech.edu/aquarium'
p878
S'https://wiki.cc.gatech.edu/aquarium'
p879
sS'http://gacomputes.cc.gatech.edu/search_form?None&month:int=10&year:int=2014&orig_query=None#portlet-'
p880
g10
sS'http://wiki.cc.gatech.edu/facilities'
p881
S'https://wiki.cc.gatech.edu/facilities'
p882
sg154
g46
sS'http://www.cc.gatech.edu/user'
p883
g48
sS'https://research.cc.gatech.edu/aifun'
p884
g170
sS'http://cpl.cc.gatech.edu/projects'
p885
S'https://www.gvu.gatech.edu'
p886
sS'http://www.cc.gatech.edu/~mnelson'
p887
S'http://www.iai.gatech.edu/people.html'
p888
sg307
g593
sS'http://wiki.cc.gatech.edu/uarch'
p889
S'https://wiki.cc.gatech.edu/uarch'
p890
sg866
g274
sS'http://gacomputes.cc.gatech.edu/author?None&month:int=9&year:int=2014&orig_query=None'
p891
g10
sS'http://www-static.cc.gatech.edu/%7Eaboldyre'
p892
g47
sS'http://www.cc.gatech.edu/~hhong31'
p893
S'http://www.cc.gatech.edu/~arriaga'
p894
sS'http://www.cc.gatech.edu/~turk'
p895
g193
sS'http://wiki.cc.gatech.edu/lablearning'
p896
S'https://wiki.cc.gatech.edu/lablearning'
p897
sS'http://www.cc.gatech.edu/~fzheng'
p898
g10
sg95
g170
sS'http://gacomputes.cc.gatech.edu/search_form#portlet-navigation-tree'
p899
g10
sS'http://gacomputes.cc.gatech.edu/sitemap?None&month:int=10&year:int=2014&orig_query=None#portlet-navi'
p900
g10
sS'http://www.cc.gatech.edu/~hyesoon'
p901
g10
sS'http://gacomputes.cc.gatech.edu/images-1'
p902
g10
sS'http://www.cc.gatech.edu/~kwatra'
p903
g208
sS'http://gacomputes.cc.gatech.edu/news#portlet-navigation-tree'
p904
g10
sS'http://gacomputes.cc.gatech.edu/mail_password_form?None&month:int=9&year:int=2014&orig_query=None'
p905
g51
sS'http://wiki.cc.gatech.edu/eye-team'
p906
g3
sS'http://www.cc.gatech.edu/filter'
p907
g48
sS'http://cpl.cc.gatech.edu/IWVS_2014'
p908
S'mailto:fli@cc.gatech.edu'
p909
sS'http://www.cc.gatech.edu/~riedl'
p910
g170
sS'http://gacomputes.cc.gatech.edu/accessibility-info?None&month:int=12&year:int=2014&orig_query=None#d'
p911
g10
sS'http://wiki.cc.gatech.edu/cisec'
p912
S'https://wiki.cc.gatech.edu/cisec'
p913
sS'http://www-static.cc.gatech.edu/~sweat'
p914
g350
sS'http://gacomputes.cc.gatech.edu/accessibility-info?None&month:int=12&year:int=2014&orig_query=None#p'
p915
g10
sS'http://www.cc.gatech.edu/news?page=2'
p916
g48
sS'http://gacomputes.cc.gatech.edu/search_form?None&month:int=10&year:int=2014&orig_query=None#document'
p917
g10
sS'http://www.cc.gatech.edu/news?page=1'
p918
g48
sS'http://www.cc.gatech.edu/news?page=4'
p919
g48
sS'http://www.cc.gatech.edu/news?page=5'
p920
g48
sS'http://wiki.cc.gatech.edu/can-itab'
p921
S'https://wiki.cc.gatech.edu/can-itab'
p922
sS'http://gacomputes.cc.gatech.edu/projects'
p923
g10
sS'http://www.cc.gatech.edu/holiday-gift-guide'
p924
S'https://www.gtisc.gatech.edu'
p925
sS'http://www-static.cc.gatech.edu/~isbell'
p926
g75
sS'https://research.cc.gatech.edu/alurulab'
p927
S'http://www.cc.gatech.edu/alurulab'
p928
sS'http://wiki.cc.gatech.edu/folklore'
p929
g872
sS'http://www.cc.gatech.edu/program'
p930
S'mailto:aheard@cc.gatech.edu'
p931
sS'http://wiki.cc.gatech.edu/firefly'
p932
S'https://wiki.cc.gatech.edu/firefly'
p933
sS'http://wiki.cc.gatech.edu/systems'
p934
S'https://wiki.cc.gatech.edu/systems'
p935
sS'http://www.cc.gatech.edu/~thad'
p936
S'http://www.prism.gatech.edu/~dkohlsdorf6'
p937
sS'http://sab.cc.gatech.edu'
p938
g2
sS'http://ice.cc.gatech.edu/apexam_final'
p939
g232
sS'http://gacomputes.cc.gatech.edu/author?None&month:int=12&year:int=2014&orig_query=None'
p940
g10
sS'http://cc.gatech.edu/~clever3'
p941
g10
sS'http://www.cc.gatech.edu/~miracle'
p942
g142
sS'http://www.cc.gatech.edu/grads'
p943
S'mailto:yuyingliu@gatech.edu'
p944
sS'http://www.cc.gatech.edu/~hpark'
p945
g10
sS'http://wiki.cc.gatech.edu/lbd'
p946
S'https://wiki.cc.gatech.edu/lbd'
p947
s.